Archive member included because of file (symbol)

libbb/lib.a(appletlib.o)      /home/media/data/hudson_build/32bitProduct_SN98600_1.20_P2P_QIWO/ST58600_SRC/toolchain/crosstool-4.5.2/bin/../arm-unknown-linux-uclibcgnueabi/sysroot/usr/lib/crt1.o (main)
libbb/lib.a(bb_basename.o)    libbb/lib.a(appletlib.o) (bb_basename)
libbb/lib.a(bb_strtonum.o)    libbb/lib.a(appletlib.o) (bb_strtoul)
libbb/lib.a(concat_path_file.o)
                              libbb/lib.a(appletlib.o) (concat_path_file)
libbb/lib.a(default_error_retval.o)
                              libbb/lib.a(appletlib.o) (xfunc_error_retval)
libbb/lib.a(get_last_path_component.o)
                              libbb/lib.a(appletlib.o) (bb_get_last_path_component_nostrip)
libbb/lib.a(last_char_is.o)   libbb/lib.a(concat_path_file.o) (last_char_is)
libbb/lib.a(messages.o)       libbb/lib.a(appletlib.o) (bb_banner)
libbb/lib.a(perror_msg.o)     libbb/lib.a(appletlib.o) (bb_perror_msg_and_die)
libbb/lib.a(ptr_to_globals.o)
                              libbb/lib.a(appletlib.o) (bb_errno)
libbb/lib.a(skip_whitespace.o)
                              libbb/lib.a(appletlib.o) (skip_whitespace)
libbb/lib.a(verror_msg.o)     libbb/lib.a(perror_msg.o) (bb_verror_msg)
libbb/lib.a(wfopen.o)         libbb/lib.a(appletlib.o) (fopen_for_read)
libbb/lib.a(xfunc_die.o)      libbb/lib.a(appletlib.o) (xfunc_die)
libbb/lib.a(xfuncs.o)         libbb/lib.a(appletlib.o) (full_write2_str)
libbb/lib.a(xfuncs_printf.o)  libbb/lib.a(appletlib.o) (xmalloc)
libbb/lib.a(xreadlink.o)      libbb/lib.a(appletlib.o) (xmalloc_readlink)
libbb/lib.a(copyfd.o)         libbb/lib.a(xfuncs_printf.o) (bb_copyfd_eof)
libbb/lib.a(full_write.o)     libbb/lib.a(verror_msg.o) (full_write)
libbb/lib.a(read.o)           libbb/lib.a(copyfd.o) (safe_read)
libbb/lib.a(safe_write.o)     libbb/lib.a(full_write.o) (safe_write)
libbb/lib.a(time.o)           libbb/lib.a(xfuncs_printf.o) (monotonic_us)
loginutils/lib.a(getty.o)     libbb/lib.a(appletlib.o) (getty_main)
loginutils/lib.a(login.o)     libbb/lib.a(appletlib.o) (login_main)
loginutils/lib.a(passwd.o)    libbb/lib.a(appletlib.o) (passwd_main)
loginutils/lib.a(sulogin.o)   libbb/lib.a(appletlib.o) (sulogin_main)
loginutils/lib.a(vlock.o)     libbb/lib.a(appletlib.o) (vlock_main)
miscutils/lib.a(flash_eraseall.o)
                              libbb/lib.a(appletlib.o) (flash_eraseall_main)
miscutils/lib.a(mt.o)         libbb/lib.a(appletlib.o) (mt_main)
miscutils/lib.a(strings.o)    libbb/lib.a(appletlib.o) (strings_main)
miscutils/lib.a(time.o)       libbb/lib.a(appletlib.o) (time_main)
modutils/lib.a(modprobe-small.o)
                              libbb/lib.a(appletlib.o) (modprobe_main)
networking/lib.a(hostname.o)  libbb/lib.a(appletlib.o) (hostname_main)
networking/lib.a(ifconfig.o)  libbb/lib.a(appletlib.o) (ifconfig_main)
networking/lib.a(inetd.o)     libbb/lib.a(appletlib.o) (inetd_main)
networking/lib.a(interface.o)
                              networking/lib.a(ifconfig.o) (in_ib)
networking/lib.a(ntpd.o)      libbb/lib.a(appletlib.o) (ntpd_main)
networking/lib.a(ping.o)      libbb/lib.a(appletlib.o) (ping_main)
networking/lib.a(route.o)     libbb/lib.a(appletlib.o) (route_main)
networking/lib.a(wget.o)      libbb/lib.a(appletlib.o) (wget_main)
networking/udhcp/lib.a(dhcpc.o)
                              libbb/lib.a(appletlib.o) (udhcpc_main)
networking/udhcp/lib.a(domain_codec.o)
                              networking/udhcp/lib.a(dhcpc.o) (dname_dec)
networking/udhcp/lib.a(packet.o)
                              networking/udhcp/lib.a(dhcpc.o) (udhcp_init_header)
networking/udhcp/lib.a(signalpipe.o)
                              networking/udhcp/lib.a(dhcpc.o) (udhcp_sp_setup)
networking/udhcp/lib.a(socket.o)
                              networking/udhcp/lib.a(dhcpc.o) (udhcp_read_interface)
networking/udhcp/lib.a(arpping.o)
                              networking/udhcp/lib.a(dhcpc.o) (arpping)
networking/udhcp/lib.a(common.o)
                              networking/udhcp/lib.a(dhcpc.o) (dhcp_verbose)
procps/lib.a(kill.o)          libbb/lib.a(appletlib.o) (kill_main)
procps/lib.a(pidof.o)         libbb/lib.a(appletlib.o) (pidof_main)
procps/lib.a(ps.o)            libbb/lib.a(appletlib.o) (ps_main)
shell/lib.a(ash.o)            libbb/lib.a(appletlib.o) (ash_main)
shell/lib.a(ash_ptr_hack.o)   shell/lib.a(ash.o) (ash_ptr_to_globals_misc)
shell/lib.a(math.o)           shell/lib.a(ash.o) (endofname)
shell/lib.a(shell_common.o)   shell/lib.a(ash.o) (shell_builtin_read)
sysklogd/lib.a(klogd.o)       libbb/lib.a(appletlib.o) (klogd_main)
sysklogd/lib.a(syslogd_and_logger.o)
                              libbb/lib.a(appletlib.o) (syslogd_main)
util-linux/lib.a(dmesg.o)     libbb/lib.a(appletlib.o) (dmesg_main)
util-linux/lib.a(fdformat.o)  libbb/lib.a(appletlib.o) (fdformat_main)
util-linux/lib.a(fdisk.o)     libbb/lib.a(appletlib.o) (fdisk_main)
util-linux/lib.a(getopt.o)    libbb/lib.a(appletlib.o) (getopt_main)
util-linux/lib.a(ipcs.o)      libbb/lib.a(appletlib.o) (ipcs_main)
util-linux/lib.a(losetup.o)   libbb/lib.a(appletlib.o) (losetup_main)
util-linux/lib.a(mdev.o)      libbb/lib.a(appletlib.o) (mdev_main)
util-linux/lib.a(mkfs_ext2.o)
                              libbb/lib.a(appletlib.o) (mkfs_ext2_main)
util-linux/lib.a(mkfs_reiser.o)
                              libbb/lib.a(appletlib.o) (mkfs_reiser_main)
util-linux/lib.a(mkfs_vfat.o)
                              libbb/lib.a(appletlib.o) (mkfs_vfat_main)
util-linux/lib.a(mount.o)     libbb/lib.a(appletlib.o) (mount_main)
util-linux/lib.a(swaponoff.o)
                              libbb/lib.a(appletlib.o) (swap_on_off_main)
util-linux/lib.a(umount.o)    libbb/lib.a(appletlib.o) (umount_main)
archival/lib.a(tar.o)         libbb/lib.a(appletlib.o) (tar_main)
archival/libarchive/lib.a(data_extract_all.o)
                              archival/lib.a(tar.o) (data_extract_all)
archival/libarchive/lib.a(data_extract_to_stdout.o)
                              archival/lib.a(tar.o) (data_extract_to_stdout)
archival/libarchive/lib.a(data_skip.o)
                              archival/libarchive/lib.a(data_extract_all.o) (data_skip)
archival/libarchive/lib.a(filter_accept_reject_list.o)
                              archival/lib.a(tar.o) (filter_accept_reject_list)
archival/libarchive/lib.a(find_list_entry.o)
                              archival/lib.a(tar.o) (find_list_entry)
archival/libarchive/lib.a(get_header_tar.o)
                              archival/lib.a(tar.o) (get_header_tar)
archival/libarchive/lib.a(header_list.o)
                              archival/lib.a(tar.o) (header_list)
archival/libarchive/lib.a(header_verbose_list.o)
                              archival/lib.a(tar.o) (header_verbose_list)
archival/libarchive/lib.a(init_handle.o)
                              archival/lib.a(tar.o) (init_handle)
archival/libarchive/lib.a(seek_by_jump.o)
                              archival/libarchive/lib.a(init_handle.o) (seek_by_jump)
archival/libarchive/lib.a(seek_by_read.o)
                              archival/lib.a(tar.o) (seek_by_read)
archival/libarchive/lib.a(data_align.o)
                              archival/libarchive/lib.a(get_header_tar.o) (data_align)
archival/libarchive/lib.a(filter_accept_all.o)
                              archival/libarchive/lib.a(init_handle.o) (filter_accept_all)
archival/libarchive/lib.a(header_skip.o)
                              archival/libarchive/lib.a(init_handle.o) (header_skip)
coreutils/lib.a(basename.o)   libbb/lib.a(appletlib.o) (basename_main)
coreutils/lib.a(cat.o)        libbb/lib.a(appletlib.o) (cat_main)
coreutils/lib.a(chgrp.o)      libbb/lib.a(appletlib.o) (chgrp_main)
coreutils/lib.a(chmod.o)      libbb/lib.a(appletlib.o) (chmod_main)
coreutils/lib.a(chown.o)      libbb/lib.a(appletlib.o) (chown_main)
coreutils/lib.a(chroot.o)     libbb/lib.a(appletlib.o) (chroot_main)
coreutils/lib.a(cp.o)         libbb/lib.a(appletlib.o) (cp_main)
coreutils/lib.a(cut.o)        libbb/lib.a(appletlib.o) (cut_main)
coreutils/lib.a(date.o)       libbb/lib.a(appletlib.o) (date_main)
coreutils/lib.a(dd.o)         libbb/lib.a(appletlib.o) (dd_main)
coreutils/lib.a(echo.o)       libbb/lib.a(appletlib.o) (echo_main)
coreutils/lib.a(env.o)        libbb/lib.a(appletlib.o) (env_main)
coreutils/lib.a(expr.o)       libbb/lib.a(appletlib.o) (expr_main)
coreutils/lib.a(false.o)      libbb/lib.a(appletlib.o) (false_main)
coreutils/lib.a(fsync.o)      libbb/lib.a(appletlib.o) (fsync_main)
coreutils/lib.a(head.o)       libbb/lib.a(appletlib.o) (head_main)
coreutils/lib.a(hostid.o)     libbb/lib.a(appletlib.o) (hostid_main)
coreutils/lib.a(install.o)    libbb/lib.a(appletlib.o) (install_main)
coreutils/lib.a(ln.o)         libbb/lib.a(appletlib.o) (ln_main)
coreutils/lib.a(logname.o)    libbb/lib.a(appletlib.o) (logname_main)
coreutils/lib.a(ls.o)         libbb/lib.a(appletlib.o) (ls_main)
coreutils/lib.a(mkdir.o)      libbb/lib.a(appletlib.o) (mkdir_main)
coreutils/lib.a(mknod.o)      libbb/lib.a(appletlib.o) (mknod_main)
coreutils/lib.a(mv.o)         libbb/lib.a(appletlib.o) (mv_main)
coreutils/lib.a(printenv.o)   libbb/lib.a(appletlib.o) (printenv_main)
coreutils/lib.a(printf.o)     libbb/lib.a(appletlib.o) (printf_main)
coreutils/lib.a(pwd.o)        libbb/lib.a(appletlib.o) (pwd_main)
coreutils/lib.a(rm.o)         libbb/lib.a(appletlib.o) (rm_main)
coreutils/lib.a(sleep.o)      libbb/lib.a(appletlib.o) (sleep_main)
coreutils/lib.a(sort.o)       libbb/lib.a(appletlib.o) (sort_main)
coreutils/lib.a(stty.o)       libbb/lib.a(appletlib.o) (stty_main)
coreutils/lib.a(sync.o)       libbb/lib.a(appletlib.o) (sync_main)
coreutils/lib.a(test.o)       libbb/lib.a(appletlib.o) (test_main)
coreutils/lib.a(test_ptr_hack.o)
                              coreutils/lib.a(test.o) (test_ptr_to_statics)
coreutils/lib.a(touch.o)      libbb/lib.a(appletlib.o) (touch_main)
coreutils/lib.a(tr.o)         libbb/lib.a(appletlib.o) (tr_main)
coreutils/lib.a(true.o)       libbb/lib.a(appletlib.o) (true_main)
coreutils/lib.a(tty.o)        libbb/lib.a(appletlib.o) (tty_main)
coreutils/lib.a(uniq.o)       libbb/lib.a(appletlib.o) (uniq_main)
coreutils/lib.a(usleep.o)     libbb/lib.a(appletlib.o) (usleep_main)
coreutils/lib.a(uudecode.o)   libbb/lib.a(appletlib.o) (uudecode_main)
coreutils/lib.a(uuencode.o)   libbb/lib.a(appletlib.o) (uuencode_main)
coreutils/lib.a(wc.o)         libbb/lib.a(appletlib.o) (wc_main)
coreutils/lib.a(yes.o)        libbb/lib.a(appletlib.o) (yes_main)
coreutils/libcoreutils/lib.a(cp_mv_stat.o)
                              coreutils/lib.a(cp.o) (cp_mv_stat2)
coreutils/libcoreutils/lib.a(getopt_mk_fifo_nod.o)
                              coreutils/lib.a(mknod.o) (getopt_mk_fifo_nod)
debianutils/lib.a(start_stop_daemon.o)
                              libbb/lib.a(appletlib.o) (start_stop_daemon_main)
editors/lib.a(diff.o)         libbb/lib.a(appletlib.o) (diff_main)
editors/lib.a(sed.o)          libbb/lib.a(appletlib.o) (sed_main)
findutils/lib.a(grep.o)       libbb/lib.a(appletlib.o) (grep_main)
init/lib.a(halt.o)            libbb/lib.a(appletlib.o) (halt_main)
init/lib.a(init.o)            libbb/lib.a(appletlib.o) (init_main)
libbb/lib.a(ask_confirmation.o)
                              coreutils/lib.a(mv.o) (bb_ask_confirmation)
libbb/lib.a(bb_askpass.o)     loginutils/lib.a(sulogin.o) (bb_ask)
libbb/lib.a(bb_do_delay.o)    loginutils/lib.a(login.o) (bb_do_delay)
libbb/lib.a(bb_pwd.o)         loginutils/lib.a(passwd.o) (xgetpwnam)
libbb/lib.a(bb_qsort.o)       editors/lib.a(diff.o) (qsort_string_vector)
libbb/lib.a(change_identity.o)
                              loginutils/lib.a(login.o) (change_identity)
libbb/lib.a(compare_string_array.o)
                              miscutils/lib.a(mt.o) (index_in_strings)
libbb/lib.a(copy_file.o)      coreutils/lib.a(cp.o) (copy_file)
libbb/lib.a(correct_password.o)
                              loginutils/lib.a(login.o) (correct_password)
libbb/lib.a(crc32.o)          miscutils/lib.a(flash_eraseall.o) (crc32_filltable)
libbb/lib.a(create_icmp_socket.o)
                              networking/lib.a(ping.o) (create_icmp_socket)
libbb/lib.a(device_open.o)    sysklogd/lib.a(syslogd_and_logger.o) (device_open)
libbb/lib.a(execable.o)       miscutils/lib.a(time.o) (BB_EXECVP_or_die)
libbb/lib.a(fclose_nonstdin.o)
                              miscutils/lib.a(strings.o) (fclose_if_not_stdin)
libbb/lib.a(fflush_stdout_and_exit.o)
                              loginutils/lib.a(vlock.o) (fflush_stdout_and_exit)
libbb/lib.a(find_mount_point.o)
                              util-linux/lib.a(mkfs_ext2.o) (find_mount_point)
libbb/lib.a(find_pid_by_name.o)
                              procps/lib.a(kill.o) (find_pid_by_name)
libbb/lib.a(get_line_from_file.o)
                              coreutils/lib.a(sort.o) (bb_get_chunk_from_file)
libbb/lib.a(get_volsize.o)    util-linux/lib.a(mkfs_ext2.o) (get_volume_size_in_bytes)
libbb/lib.a(getopt32.o)       loginutils/lib.a(getty.o) (getopt32)
libbb/lib.a(herror_msg.o)     util-linux/lib.a(mount.o) (bb_herror_msg)
libbb/lib.a(human_readable.o)
                              coreutils/lib.a(dd.o) (make_human_readable_str)
libbb/lib.a(inet_common.o)    networking/lib.a(interface.o) (INET_resolve)
libbb/lib.a(info_msg.o)       loginutils/lib.a(passwd.o) (bb_info_msg)
libbb/lib.a(inode_hash.o)     libbb/lib.a(copy_file.o) (is_in_ino_dev_hashtable)
libbb/lib.a(isdirectory.o)    coreutils/lib.a(ln.o) (is_directory)
libbb/lib.a(kernel_version.o)
                              util-linux/lib.a(mount.o) (get_linux_version_code)
libbb/lib.a(lineedit.o)       shell/lib.a(ash.o) (new_line_input_t)
libbb/lib.a(lineedit_ptr_hack.o)
                              libbb/lib.a(lineedit.o) (lineedit_ptr_to_statics)
libbb/lib.a(llist.o)          networking/lib.a(ntpd.o) (llist_add_to)
libbb/lib.a(login.o)          loginutils/lib.a(getty.o) (print_login_issue)
libbb/lib.a(loop.o)           util-linux/lib.a(losetup.o) (query_loop)
libbb/lib.a(make_directory.o)
                              util-linux/lib.a(mdev.o) (bb_make_directory)
libbb/lib.a(makedev.o)        util-linux/lib.a(mdev.o) (bb_makedev)
libbb/lib.a(match_fstype.o)   util-linux/lib.a(mount.o) (match_fstype)
libbb/lib.a(mode_string.o)    archival/libarchive/lib.a(header_verbose_list.o) (bb_mode_string)
libbb/lib.a(parse_config.o)   loginutils/lib.a(login.o) (config_open2)
libbb/lib.a(parse_mode.o)     shell/lib.a(ash.o) (bb_parse_mode)
libbb/lib.a(perror_nomsg_and_die.o)
                              coreutils/lib.a(usleep.o) (bb_perror_nomsg_and_die)
libbb/lib.a(pidfile.o)        networking/lib.a(inetd.o) (write_pidfile)
libbb/lib.a(printable_string.o)
                              coreutils/lib.a(ls.o) (printable_string)
libbb/lib.a(process_escape_sequence.o)
                              shell/lib.a(ash.o) (bb_process_escape_sequence)
libbb/lib.a(procps.o)         procps/lib.a(ps.o) (get_cached_username)
libbb/lib.a(progress.o)       networking/lib.a(wget.o) (bb_progress_init)
libbb/lib.a(pw_encrypt.o)     loginutils/lib.a(passwd.o) (crypt_make_salt)
libbb/lib.a(read_key.o)       libbb/lib.a(lineedit.o) (read_key)
libbb/lib.a(read_printf.o)    shell/lib.a(ash.o) (nonblock_safe_read)
libbb/lib.a(recursive_action.o)
                              modutils/lib.a(modprobe-small.o) (recursive_action)
libbb/lib.a(remove_file.o)    coreutils/lib.a(mv.o) (remove_file)
libbb/lib.a(run_shell.o)      loginutils/lib.a(login.o) (run_shell)
libbb/lib.a(safe_gethostname.o)
                              networking/lib.a(hostname.o) (safe_gethostname)
libbb/lib.a(safe_poll.o)      networking/lib.a(wget.o) (safe_poll)
libbb/lib.a(safe_strncpy.o)   loginutils/lib.a(login.o) (safe_strncpy)
libbb/lib.a(setup_environment.o)
                              loginutils/lib.a(login.o) (setup_environment)
libbb/lib.a(signals.o)        networking/lib.a(ntpd.o) (record_signo)
libbb/lib.a(simplify_path.o)  util-linux/lib.a(mount.o) (bb_simplify_path)
libbb/lib.a(speed_table.o)    coreutils/lib.a(stty.o) (tty_baud_to_value)
libbb/lib.a(str_tolower.o)    networking/lib.a(wget.o) (str_tolower)
libbb/lib.a(strrstr.o)        modutils/lib.a(modprobe-small.o) (strrstr)
libbb/lib.a(u_signal_names.o)
                              procps/lib.a(kill.o) (get_signum)
libbb/lib.a(udp_io.o)         networking/lib.a(ntpd.o) (socket_want_pktinfo)
libbb/lib.a(unicode.o)        libbb/lib.a(lineedit.o) (bb_wcrtomb)
libbb/lib.a(update_passwd.o)  loginutils/lib.a(passwd.o) (update_passwd)
libbb/lib.a(utmp.o)           loginutils/lib.a(getty.o) (update_utmp)
libbb/lib.a(uuencode.o)       networking/lib.a(wget.o) (bb_uuencode)
libbb/lib.a(vfork_daemon_rexec.o)
                              networking/lib.a(ntpd.o) (spawn)
libbb/lib.a(wfopen_input.o)   miscutils/lib.a(strings.o) (fopen_or_warn_stdin)
libbb/lib.a(write.o)          util-linux/lib.a(mdev.o) (xopen_xwrite_close)
libbb/lib.a(xatonum.o)        libbb/lib.a(get_volsize.o) (xatoull_range)
libbb/lib.a(xconnect.o)       networking/lib.a(inetd.o) (setsockopt_reuseaddr)
libbb/lib.a(xgetcwd.o)        coreutils/lib.a(pwd.o) (xrealloc_getcwd_or_warn)
libbb/lib.a(xgethostbyname.o)
                              networking/lib.a(hostname.o) (xgethostbyname)
libbb/lib.a(xrealloc_vector.o)
                              modutils/lib.a(modprobe-small.o) (xrealloc_vector_helper)
libbb/lib.a(xregcomp.o)       util-linux/lib.a(mdev.o) (xregcomp)
libbb/lib.a(concat_subpath_file.o)
                              libbb/lib.a(copy_file.o) (concat_subpath_file)
libbb/lib.a(hash_md5_sha.o)   libbb/lib.a(pw_encrypt.o) (md5_begin)
libbb/lib.a(perror_nomsg.o)   libbb/lib.a(update_passwd.o) (bb_perror_nomsg)
libbb/lib.a(bb_bswap_64.o)    libbb/lib.a(hash_md5_sha.o) (bb_bswap_64)
libpwdgrp/lib.a(uidgid_get.o)
                              util-linux/lib.a(mdev.o) (get_uidgid)
/home/media/data/hudson_build/32bitProduct_SN98600_1.20_P2P_QIWO/ST58600_SRC/toolchain/crosstool-4.5.2/bin/../lib/gcc/arm-unknown-linux-uclibcgnueabi/4.5.2/libgcc.a(_udivsi3.o)
                              libbb/lib.a(xfuncs.o) (__aeabi_uidiv)
/home/media/data/hudson_build/32bitProduct_SN98600_1.20_P2P_QIWO/ST58600_SRC/toolchain/crosstool-4.5.2/bin/../lib/gcc/arm-unknown-linux-uclibcgnueabi/4.5.2/libgcc.a(_divsi3.o)
                              libbb/lib.a(time.o) (__aeabi_idiv)
/home/media/data/hudson_build/32bitProduct_SN98600_1.20_P2P_QIWO/ST58600_SRC/toolchain/crosstool-4.5.2/bin/../lib/gcc/arm-unknown-linux-uclibcgnueabi/4.5.2/libgcc.a(_lshrdi3.o)
                              shell/lib.a(shell_common.o) (__aeabi_llsr)
/home/media/data/hudson_build/32bitProduct_SN98600_1.20_P2P_QIWO/ST58600_SRC/toolchain/crosstool-4.5.2/bin/../lib/gcc/arm-unknown-linux-uclibcgnueabi/4.5.2/libgcc.a(_ashrdi3.o)
                              shell/lib.a(math.o) (__aeabi_lasr)
/home/media/data/hudson_build/32bitProduct_SN98600_1.20_P2P_QIWO/ST58600_SRC/toolchain/crosstool-4.5.2/bin/../lib/gcc/arm-unknown-linux-uclibcgnueabi/4.5.2/libgcc.a(_ashldi3.o)
                              shell/lib.a(math.o) (__aeabi_llsl)
/home/media/data/hudson_build/32bitProduct_SN98600_1.20_P2P_QIWO/ST58600_SRC/toolchain/crosstool-4.5.2/bin/../lib/gcc/arm-unknown-linux-uclibcgnueabi/4.5.2/libgcc.a(_arm_addsubdf3.o)
                              networking/lib.a(ntpd.o) (__aeabi_dsub)
/home/media/data/hudson_build/32bitProduct_SN98600_1.20_P2P_QIWO/ST58600_SRC/toolchain/crosstool-4.5.2/bin/../lib/gcc/arm-unknown-linux-uclibcgnueabi/4.5.2/libgcc.a(_arm_muldivdf3.o)
                              networking/lib.a(ntpd.o) (__aeabi_dmul)
/home/media/data/hudson_build/32bitProduct_SN98600_1.20_P2P_QIWO/ST58600_SRC/toolchain/crosstool-4.5.2/bin/../lib/gcc/arm-unknown-linux-uclibcgnueabi/4.5.2/libgcc.a(_arm_cmpdf2.o)
                              networking/lib.a(ntpd.o) (__aeabi_dcmpeq)
/home/media/data/hudson_build/32bitProduct_SN98600_1.20_P2P_QIWO/ST58600_SRC/toolchain/crosstool-4.5.2/bin/../lib/gcc/arm-unknown-linux-uclibcgnueabi/4.5.2/libgcc.a(_arm_fixdfsi.o)
                              networking/lib.a(ntpd.o) (__aeabi_d2iz)
/home/media/data/hudson_build/32bitProduct_SN98600_1.20_P2P_QIWO/ST58600_SRC/toolchain/crosstool-4.5.2/bin/../lib/gcc/arm-unknown-linux-uclibcgnueabi/4.5.2/libgcc.a(_arm_fixunsdfsi.o)
                              networking/lib.a(ntpd.o) (__aeabi_d2uiz)
/home/media/data/hudson_build/32bitProduct_SN98600_1.20_P2P_QIWO/ST58600_SRC/toolchain/crosstool-4.5.2/bin/../lib/gcc/arm-unknown-linux-uclibcgnueabi/4.5.2/libgcc.a(_arm_truncdfsf2.o)
                              networking/lib.a(ntpd.o) (__aeabi_d2f)
/home/media/data/hudson_build/32bitProduct_SN98600_1.20_P2P_QIWO/ST58600_SRC/toolchain/crosstool-4.5.2/bin/../lib/gcc/arm-unknown-linux-uclibcgnueabi/4.5.2/libgcc.a(_aeabi_ulcmp.o)
                              util-linux/lib.a(mkfs_vfat.o) (__aeabi_ulcmp)
/home/media/data/hudson_build/32bitProduct_SN98600_1.20_P2P_QIWO/ST58600_SRC/toolchain/crosstool-4.5.2/bin/../lib/gcc/arm-unknown-linux-uclibcgnueabi/4.5.2/libgcc.a(_aeabi_ldivmod.o)
                              shell/lib.a(math.o) (__aeabi_ldivmod)
/home/media/data/hudson_build/32bitProduct_SN98600_1.20_P2P_QIWO/ST58600_SRC/toolchain/crosstool-4.5.2/bin/../lib/gcc/arm-unknown-linux-uclibcgnueabi/4.5.2/libgcc.a(_aeabi_uldivmod.o)
                              miscutils/lib.a(flash_eraseall.o) (__aeabi_uldivmod)
/home/media/data/hudson_build/32bitProduct_SN98600_1.20_P2P_QIWO/ST58600_SRC/toolchain/crosstool-4.5.2/bin/../lib/gcc/arm-unknown-linux-uclibcgnueabi/4.5.2/libgcc.a(_dvmd_lnx.o)
                              /home/media/data/hudson_build/32bitProduct_SN98600_1.20_P2P_QIWO/ST58600_SRC/toolchain/crosstool-4.5.2/bin/../lib/gcc/arm-unknown-linux-uclibcgnueabi/4.5.2/libgcc.a(_udivsi3.o) (__aeabi_idiv0)
/home/media/data/hudson_build/32bitProduct_SN98600_1.20_P2P_QIWO/ST58600_SRC/toolchain/crosstool-4.5.2/bin/../lib/gcc/arm-unknown-linux-uclibcgnueabi/4.5.2/libgcc.a(_fixunsdfdi.o)
                              coreutils/lib.a(dd.o) (__aeabi_d2ulz)
/home/media/data/hudson_build/32bitProduct_SN98600_1.20_P2P_QIWO/ST58600_SRC/toolchain/crosstool-4.5.2/bin/../lib/gcc/arm-unknown-linux-uclibcgnueabi/4.5.2/libgcc.a(bpabi.o)
                              /home/media/data/hudson_build/32bitProduct_SN98600_1.20_P2P_QIWO/ST58600_SRC/toolchain/crosstool-4.5.2/bin/../lib/gcc/arm-unknown-linux-uclibcgnueabi/4.5.2/libgcc.a(_aeabi_ldivmod.o) (__gnu_ldivmod_helper)
/home/media/data/hudson_build/32bitProduct_SN98600_1.20_P2P_QIWO/ST58600_SRC/toolchain/crosstool-4.5.2/bin/../lib/gcc/arm-unknown-linux-uclibcgnueabi/4.5.2/libgcc.a(_divdi3.o)
                              /home/media/data/hudson_build/32bitProduct_SN98600_1.20_P2P_QIWO/ST58600_SRC/toolchain/crosstool-4.5.2/bin/../lib/gcc/arm-unknown-linux-uclibcgnueabi/4.5.2/libgcc.a(bpabi.o) (__divdi3)
/home/media/data/hudson_build/32bitProduct_SN98600_1.20_P2P_QIWO/ST58600_SRC/toolchain/crosstool-4.5.2/bin/../lib/gcc/arm-unknown-linux-uclibcgnueabi/4.5.2/libgcc.a(_udivdi3.o)
                              /home/media/data/hudson_build/32bitProduct_SN98600_1.20_P2P_QIWO/ST58600_SRC/toolchain/crosstool-4.5.2/bin/../lib/gcc/arm-unknown-linux-uclibcgnueabi/4.5.2/libgcc.a(bpabi.o) (__udivdi3)
/home/media/data/hudson_build/32bitProduct_SN98600_1.20_P2P_QIWO/ST58600_SRC/toolchain/crosstool-4.5.2/bin/../lib/gcc/arm-unknown-linux-uclibcgnueabi/4.5.2/libgcc_eh.a(unwind-arm.o)
                              /home/media/data/hudson_build/32bitProduct_SN98600_1.20_P2P_QIWO/ST58600_SRC/toolchain/crosstool-4.5.2/bin/../lib/gcc/arm-unknown-linux-uclibcgnueabi/4.5.2/libgcc.a(bpabi.o) (__aeabi_unwind_cpp_pr0)
/home/media/data/hudson_build/32bitProduct_SN98600_1.20_P2P_QIWO/ST58600_SRC/toolchain/crosstool-4.5.2/bin/../lib/gcc/arm-unknown-linux-uclibcgnueabi/4.5.2/libgcc_eh.a(libunwind.o)
                              /home/media/data/hudson_build/32bitProduct_SN98600_1.20_P2P_QIWO/ST58600_SRC/toolchain/crosstool-4.5.2/bin/../lib/gcc/arm-unknown-linux-uclibcgnueabi/4.5.2/libgcc_eh.a(unwind-arm.o) (restore_core_regs)
/home/media/data/hudson_build/32bitProduct_SN98600_1.20_P2P_QIWO/ST58600_SRC/toolchain/crosstool-4.5.2/bin/../lib/gcc/arm-unknown-linux-uclibcgnueabi/4.5.2/libgcc_eh.a(pr-support.o)
                              /home/media/data/hudson_build/32bitProduct_SN98600_1.20_P2P_QIWO/ST58600_SRC/toolchain/crosstool-4.5.2/bin/../lib/gcc/arm-unknown-linux-uclibcgnueabi/4.5.2/libgcc_eh.a(unwind-arm.o) (__gnu_unwind_execute)
/home/media/data/hudson_build/32bitProduct_SN98600_1.20_P2P_QIWO/ST58600_SRC/toolchain/crosstool-4.5.2/bin/../arm-unknown-linux-uclibcgnueabi/sysroot/usr/lib/uclibc_nonshared.a(atexit.os)
                              editors/lib.a(sed.o) (atexit)

Allocating common symbols
Common symbol       size              file

bb_common_bufsiz1   0x1001            libbb/lib.a(messages.o)
applet_name         0x4               libbb/lib.a(appletlib.o)
opt_complementary   0x4               libbb/lib.a(getopt32.o)
lineedit_ptr_to_statics
                    0x4               libbb/lib.a(lineedit_ptr_hack.o)
bb_errno            0x4               libbb/lib.a(ptr_to_globals.o)
ash_ptr_to_globals_memstack
                    0x4               shell/lib.a(ash_ptr_hack.o)
dhcp_verbose        0x4               networking/udhcp/lib.a(common.o)
bb_got_signal       0x4               libbb/lib.a(signals.o)
ash_ptr_to_globals_misc
                    0x4               shell/lib.a(ash_ptr_hack.o)
global_crc32_table  0x4               libbb/lib.a(crc32.o)
option_mask32       0x4               libbb/lib.a(getopt32.o)
die_sleep           0x4               libbb/lib.a(xfunc_die.o)
ash_ptr_to_globals_var
                    0x4               shell/lib.a(ash_ptr_hack.o)
test_ptr_to_statics
                    0x4               coreutils/lib.a(test_ptr_hack.o)
wrote_pidfile       0x4               libbb/lib.a(pidfile.o)
ptr_to_globals      0x4               libbb/lib.a(ptr_to_globals.o)
applet_long_options
                    0x4               libbb/lib.a(getopt32.o)
interface_opt_a     0x4               networking/lib.a(interface.o)

Discarded input sections

 .data          0x00000000        0x4 /home/media/data/hudson_build/32bitProduct_SN98600_1.20_P2P_QIWO/ST58600_SRC/toolchain/crosstool-4.5.2/bin/../arm-unknown-linux-uclibcgnueabi/sysroot/usr/lib/crt1.o
 .bss           0x00000000        0x0 /home/media/data/hudson_build/32bitProduct_SN98600_1.20_P2P_QIWO/ST58600_SRC/toolchain/crosstool-4.5.2/bin/../arm-unknown-linux-uclibcgnueabi/sysroot/usr/lib/crt1.o
 .note.GNU-stack
                0x00000000        0x0 /home/media/data/hudson_build/32bitProduct_SN98600_1.20_P2P_QIWO/ST58600_SRC/toolchain/crosstool-4.5.2/bin/../arm-unknown-linux-uclibcgnueabi/sysroot/usr/lib/crt1.o
 .text          0x00000000       0x3c /home/media/data/hudson_build/32bitProduct_SN98600_1.20_P2P_QIWO/ST58600_SRC/toolchain/crosstool-4.5.2/bin/../arm-unknown-linux-uclibcgnueabi/sysroot/usr/lib/crti.o
 .data          0x00000000        0x0 /home/media/data/hudson_build/32bitProduct_SN98600_1.20_P2P_QIWO/ST58600_SRC/toolchain/crosstool-4.5.2/bin/../arm-unknown-linux-uclibcgnueabi/sysroot/usr/lib/crti.o
 .bss           0x00000000        0x0 /home/media/data/hudson_build/32bitProduct_SN98600_1.20_P2P_QIWO/ST58600_SRC/toolchain/crosstool-4.5.2/bin/../arm-unknown-linux-uclibcgnueabi/sysroot/usr/lib/crti.o
 .note.GNU-stack
                0x00000000        0x0 /home/media/data/hudson_build/32bitProduct_SN98600_1.20_P2P_QIWO/ST58600_SRC/toolchain/crosstool-4.5.2/bin/../arm-unknown-linux-uclibcgnueabi/sysroot/usr/lib/crti.o
 .note.GNU-stack
                0x00000000        0x0 /home/media/data/hudson_build/32bitProduct_SN98600_1.20_P2P_QIWO/ST58600_SRC/toolchain/crosstool-4.5.2/bin/../lib/gcc/arm-unknown-linux-uclibcgnueabi/4.5.2/crtbegin.o
 .text          0x00000000        0x0 applets/built-in.o
 .data          0x00000000        0x0 applets/built-in.o
 .bss           0x00000000        0x0 applets/built-in.o
 .comment       0x00000000       0x31 applets/built-in.o
 .note.GNU-stack
                0x00000000        0x0 applets/built-in.o
 .ARM.attributes
                0x00000000       0x2d applets/built-in.o
 .text          0x00000000        0x0 libbb/lib.a(appletlib.o)
 .data          0x00000000        0x0 libbb/lib.a(appletlib.o)
 .bss           0x00000000        0x0 libbb/lib.a(appletlib.o)
 .note.GNU-stack
                0x00000000        0x0 libbb/lib.a(appletlib.o)
 .text          0x00000000        0x0 libbb/lib.a(bb_basename.o)
 .data          0x00000000        0x0 libbb/lib.a(bb_basename.o)
 .bss           0x00000000        0x0 libbb/lib.a(bb_basename.o)
 .note.GNU-stack
                0x00000000        0x0 libbb/lib.a(bb_basename.o)
 .text          0x00000000        0x0 libbb/lib.a(bb_strtonum.o)
 .data          0x00000000        0x0 libbb/lib.a(bb_strtonum.o)
 .bss           0x00000000        0x0 libbb/lib.a(bb_strtonum.o)
 .note.GNU-stack
                0x00000000        0x0 libbb/lib.a(bb_strtonum.o)
 .text          0x00000000        0x0 libbb/lib.a(concat_path_file.o)
 .data          0x00000000        0x0 libbb/lib.a(concat_path_file.o)
 .bss           0x00000000        0x0 libbb/lib.a(concat_path_file.o)
 .note.GNU-stack
                0x00000000        0x0 libbb/lib.a(concat_path_file.o)
 .text          0x00000000        0x0 libbb/lib.a(default_error_retval.o)
 .data          0x00000000        0x0 libbb/lib.a(default_error_retval.o)
 .bss           0x00000000        0x0 libbb/lib.a(default_error_retval.o)
 .note.GNU-stack
                0x00000000        0x0 libbb/lib.a(default_error_retval.o)
 .text          0x00000000        0x0 libbb/lib.a(get_last_path_component.o)
 .data          0x00000000        0x0 libbb/lib.a(get_last_path_component.o)
 .bss           0x00000000        0x0 libbb/lib.a(get_last_path_component.o)
 .note.GNU-stack
                0x00000000        0x0 libbb/lib.a(get_last_path_component.o)
 .text          0x00000000        0x0 libbb/lib.a(last_char_is.o)
 .data          0x00000000        0x0 libbb/lib.a(last_char_is.o)
 .bss           0x00000000        0x0 libbb/lib.a(last_char_is.o)
 .note.GNU-stack
                0x00000000        0x0 libbb/lib.a(last_char_is.o)
 .text          0x00000000        0x0 libbb/lib.a(messages.o)
 .data          0x00000000        0x0 libbb/lib.a(messages.o)
 .bss           0x00000000        0x0 libbb/lib.a(messages.o)
 .rodata.bb_msg_invalid_arg
                0x00000000       0x20 libbb/lib.a(messages.o)
 .note.GNU-stack
                0x00000000        0x0 libbb/lib.a(messages.o)
 .text          0x00000000        0x0 libbb/lib.a(perror_msg.o)
 .data          0x00000000        0x0 libbb/lib.a(perror_msg.o)
 .bss           0x00000000        0x0 libbb/lib.a(perror_msg.o)
 .note.GNU-stack
                0x00000000        0x0 libbb/lib.a(perror_msg.o)
 .text          0x00000000        0x0 libbb/lib.a(ptr_to_globals.o)
 .data          0x00000000        0x0 libbb/lib.a(ptr_to_globals.o)
 .bss           0x00000000        0x0 libbb/lib.a(ptr_to_globals.o)
 .note.GNU-stack
                0x00000000        0x0 libbb/lib.a(ptr_to_globals.o)
 .text          0x00000000        0x0 libbb/lib.a(skip_whitespace.o)
 .data          0x00000000        0x0 libbb/lib.a(skip_whitespace.o)
 .bss           0x00000000        0x0 libbb/lib.a(skip_whitespace.o)
 .note.GNU-stack
                0x00000000        0x0 libbb/lib.a(skip_whitespace.o)
 .text          0x00000000        0x0 libbb/lib.a(verror_msg.o)
 .data          0x00000000        0x0 libbb/lib.a(verror_msg.o)
 .bss           0x00000000        0x0 libbb/lib.a(verror_msg.o)
 .note.GNU-stack
                0x00000000        0x0 libbb/lib.a(verror_msg.o)
 .text          0x00000000        0x0 libbb/lib.a(wfopen.o)
 .data          0x00000000        0x0 libbb/lib.a(wfopen.o)
 .bss           0x00000000        0x0 libbb/lib.a(wfopen.o)
 .text.fopen_for_write
                0x00000000        0xc libbb/lib.a(wfopen.o)
 .text.xfdopen_for_read
                0x00000000        0x8 libbb/lib.a(wfopen.o)
 .note.GNU-stack
                0x00000000        0x0 libbb/lib.a(wfopen.o)
 .text          0x00000000        0x0 libbb/lib.a(xfunc_die.o)
 .data          0x00000000        0x0 libbb/lib.a(xfunc_die.o)
 .bss           0x00000000        0x0 libbb/lib.a(xfunc_die.o)
 .note.GNU-stack
                0x00000000        0x0 libbb/lib.a(xfunc_die.o)
 .text          0x00000000        0x0 libbb/lib.a(xfuncs.o)
 .data          0x00000000        0x0 libbb/lib.a(xfuncs.o)
 .bss           0x00000000        0x0 libbb/lib.a(xfuncs.o)
 .note.GNU-stack
                0x00000000        0x0 libbb/lib.a(xfuncs.o)
 .text          0x00000000        0x0 libbb/lib.a(xfuncs_printf.o)
 .data          0x00000000        0x0 libbb/lib.a(xfuncs_printf.o)
 .bss           0x00000000        0x0 libbb/lib.a(xfuncs_printf.o)
 .text.malloc_or_warn
                0x00000000       0x3c libbb/lib.a(xfuncs_printf.o)
 .text.xunlink  0x00000000       0x24 libbb/lib.a(xfuncs_printf.o)
 .text.rename_or_warn
                0x00000000       0x34 libbb/lib.a(xfuncs_printf.o)
 .text.xlisten  0x00000000       0x1c libbb/lib.a(xfuncs_printf.o)
 .text.selinux_or_die
                0x00000000       0x10 libbb/lib.a(xfuncs_printf.o)
 .note.GNU-stack
                0x00000000        0x0 libbb/lib.a(xfuncs_printf.o)
 .text          0x00000000        0x0 libbb/lib.a(xreadlink.o)
 .data          0x00000000        0x0 libbb/lib.a(xreadlink.o)
 .bss           0x00000000        0x0 libbb/lib.a(xreadlink.o)
 .note.GNU-stack
                0x00000000        0x0 libbb/lib.a(xreadlink.o)
 .text          0x00000000        0x0 libbb/lib.a(copyfd.o)
 .data          0x00000000        0x0 libbb/lib.a(copyfd.o)
 .bss           0x00000000        0x0 libbb/lib.a(copyfd.o)
 .note.GNU-stack
                0x00000000        0x0 libbb/lib.a(copyfd.o)
 .text          0x00000000        0x0 libbb/lib.a(full_write.o)
 .data          0x00000000        0x0 libbb/lib.a(full_write.o)
 .bss           0x00000000        0x0 libbb/lib.a(full_write.o)
 .note.GNU-stack
                0x00000000        0x0 libbb/lib.a(full_write.o)
 .text          0x00000000        0x0 libbb/lib.a(read.o)
 .data          0x00000000        0x0 libbb/lib.a(read.o)
 .bss           0x00000000        0x0 libbb/lib.a(read.o)
 .note.GNU-stack
                0x00000000        0x0 libbb/lib.a(read.o)
 .text          0x00000000        0x0 libbb/lib.a(safe_write.o)
 .data          0x00000000        0x0 libbb/lib.a(safe_write.o)
 .bss           0x00000000        0x0 libbb/lib.a(safe_write.o)
 .note.GNU-stack
                0x00000000        0x0 libbb/lib.a(safe_write.o)
 .text          0x00000000        0x0 libbb/lib.a(time.o)
 .data          0x00000000        0x0 libbb/lib.a(time.o)
 .bss           0x00000000        0x0 libbb/lib.a(time.o)
 .text.monotonic_ns
                0x00000000       0x44 libbb/lib.a(time.o)
 .note.GNU-stack
                0x00000000        0x0 libbb/lib.a(time.o)
 .text          0x00000000        0x0 loginutils/lib.a(getty.o)
 .data          0x00000000        0x0 loginutils/lib.a(getty.o)
 .bss           0x00000000        0x0 loginutils/lib.a(getty.o)
 .note.GNU-stack
                0x00000000        0x0 loginutils/lib.a(getty.o)
 .text          0x00000000        0x0 loginutils/lib.a(login.o)
 .data          0x00000000        0x0 loginutils/lib.a(login.o)
 .bss           0x00000000        0x0 loginutils/lib.a(login.o)
 .note.GNU-stack
                0x00000000        0x0 loginutils/lib.a(login.o)
 .text          0x00000000        0x0 loginutils/lib.a(passwd.o)
 .data          0x00000000        0x0 loginutils/lib.a(passwd.o)
 .bss           0x00000000        0x0 loginutils/lib.a(passwd.o)
 .note.GNU-stack
                0x00000000        0x0 loginutils/lib.a(passwd.o)
 .text          0x00000000        0x0 loginutils/lib.a(sulogin.o)
 .data          0x00000000        0x0 loginutils/lib.a(sulogin.o)
 .bss           0x00000000        0x0 loginutils/lib.a(sulogin.o)
 .note.GNU-stack
                0x00000000        0x0 loginutils/lib.a(sulogin.o)
 .text          0x00000000        0x0 loginutils/lib.a(vlock.o)
 .data          0x00000000        0x0 loginutils/lib.a(vlock.o)
 .bss           0x00000000        0x0 loginutils/lib.a(vlock.o)
 .note.GNU-stack
                0x00000000        0x0 loginutils/lib.a(vlock.o)
 .text          0x00000000        0x0 miscutils/lib.a(flash_eraseall.o)
 .data          0x00000000        0x0 miscutils/lib.a(flash_eraseall.o)
 .bss           0x00000000        0x0 miscutils/lib.a(flash_eraseall.o)
 .note.GNU-stack
                0x00000000        0x0 miscutils/lib.a(flash_eraseall.o)
 .text          0x00000000        0x0 miscutils/lib.a(mt.o)
 .data          0x00000000        0x0 miscutils/lib.a(mt.o)
 .bss           0x00000000        0x0 miscutils/lib.a(mt.o)
 .note.GNU-stack
                0x00000000        0x0 miscutils/lib.a(mt.o)
 .text          0x00000000        0x0 miscutils/lib.a(strings.o)
 .data          0x00000000        0x0 miscutils/lib.a(strings.o)
 .bss           0x00000000        0x0 miscutils/lib.a(strings.o)
 .note.GNU-stack
                0x00000000        0x0 miscutils/lib.a(strings.o)
 .text          0x00000000        0x0 miscutils/lib.a(time.o)
 .data          0x00000000        0x0 miscutils/lib.a(time.o)
 .bss           0x00000000        0x0 miscutils/lib.a(time.o)
 .note.GNU-stack
                0x00000000        0x0 miscutils/lib.a(time.o)
 .text          0x00000000        0x0 modutils/lib.a(modprobe-small.o)
 .data          0x00000000        0x0 modutils/lib.a(modprobe-small.o)
 .bss           0x00000000        0x0 modutils/lib.a(modprobe-small.o)
 .note.GNU-stack
                0x00000000        0x0 modutils/lib.a(modprobe-small.o)
 .text          0x00000000        0x0 networking/lib.a(hostname.o)
 .data          0x00000000        0x0 networking/lib.a(hostname.o)
 .bss           0x00000000        0x0 networking/lib.a(hostname.o)
 .note.GNU-stack
                0x00000000        0x0 networking/lib.a(hostname.o)
 .text          0x00000000        0x0 networking/lib.a(ifconfig.o)
 .data          0x00000000        0x0 networking/lib.a(ifconfig.o)
 .bss           0x00000000        0x0 networking/lib.a(ifconfig.o)
 .note.GNU-stack
                0x00000000        0x0 networking/lib.a(ifconfig.o)
 .text          0x00000000        0x0 networking/lib.a(inetd.o)
 .data          0x00000000        0x0 networking/lib.a(inetd.o)
 .bss           0x00000000        0x0 networking/lib.a(inetd.o)
 .note.GNU-stack
                0x00000000        0x0 networking/lib.a(inetd.o)
 .text          0x00000000        0x0 networking/lib.a(interface.o)
 .data          0x00000000        0x0 networking/lib.a(interface.o)
 .bss           0x00000000        0x0 networking/lib.a(interface.o)
 .text.get_afntype
                0x00000000       0x2c networking/lib.a(interface.o)
 .text.hexchar2int
                0x00000000       0x2c networking/lib.a(interface.o)
 .text.ether_input
                0x00000000       0xb4 networking/lib.a(interface.o)
 .text.add_interface
                0x00000000       0x90 networking/lib.a(interface.o)
 .text.if_readconf
                0x00000000       0xd0 networking/lib.a(interface.o)
 .text.if_readlist_proc
                0x00000000      0x2ac networking/lib.a(interface.o)
 .text.do_if_fetch
                0x00000000      0x318 networking/lib.a(interface.o)
 .text.print_bytes_scaled
                0x00000000       0x88 networking/lib.a(interface.o)
 .text.UNSPEC_print
                0x00000000       0x74 networking/lib.a(interface.o)
 .text.UNSPEC_sprint
                0x00000000       0x28 networking/lib.a(interface.o)
 .text.INET_input
                0x00000000        0x8 networking/lib.a(interface.o)
 .text.INET_sprint
                0x00000000       0x54 networking/lib.a(interface.o)
 .text.ether_print
                0x00000000       0x58 networking/lib.a(interface.o)
 .text.get_aftype
                0x00000000       0x3c networking/lib.a(interface.o)
 .text.get_hwtype
                0x00000000       0x3c networking/lib.a(interface.o)
 .text.get_hwntype
                0x00000000       0x2c networking/lib.a(interface.o)
 .text.ife_print
                0x00000000      0x408 networking/lib.a(interface.o)
 .text.display_interfaces
                0x00000000       0xd8 networking/lib.a(interface.o)
 .rodata.hwtypes
                0x00000000       0x18 networking/lib.a(interface.o)
 .rodata.ppp_hwtype
                0x00000000       0x20 networking/lib.a(interface.o)
 .rodata.ether_hwtype
                0x00000000       0x20 networking/lib.a(interface.o)
 .bss.int_list  0x00000000        0x4 networking/lib.a(interface.o)
 .bss.buff.7202
                0x00000000        0x4 networking/lib.a(interface.o)
 .bss.buff.7193
                0x00000000        0x4 networking/lib.a(interface.o)
 .bss.buff.7354
                0x00000000        0x4 networking/lib.a(interface.o)
 .rodata.unspec_aftype
                0x00000000       0x2c networking/lib.a(interface.o)
 .rodata.loop_hwtype
                0x00000000       0x20 networking/lib.a(interface.o)
 .rodata.str1.1
                0x00000000      0x3b7 networking/lib.a(interface.o)
 .rodata.TRext  0x00000000        0xf networking/lib.a(interface.o)
 .rodata.inet_aftype
                0x00000000       0x2c networking/lib.a(interface.o)
 .bss.proc_read.7324
                0x00000000        0x4 networking/lib.a(interface.o)
 .rodata.ife_print_flags_strs.7418
                0x00000000       0x6a networking/lib.a(interface.o)
 .bss.int_last  0x00000000        0x4 networking/lib.a(interface.o)
 .rodata.ss_fmt
                0x00000000        0xc networking/lib.a(interface.o)
 .rodata.ife_print_flags_mask.7419
                0x00000000       0x1a networking/lib.a(interface.o)
 .rodata.aftypes
                0x00000000        0xc networking/lib.a(interface.o)
 .rodata.if_port_text
                0x00000000       0x20 networking/lib.a(interface.o)
 .rodata.unspec_hwtype
                0x00000000       0x20 networking/lib.a(interface.o)
 .rodata.ib_hwtype
                0x00000000       0x20 networking/lib.a(interface.o)
 .note.GNU-stack
                0x00000000        0x0 networking/lib.a(interface.o)
 COMMON         0x00000000        0x4 networking/lib.a(interface.o)
 .text          0x00000000        0x0 networking/lib.a(ntpd.o)
 .data          0x00000000        0x0 networking/lib.a(ntpd.o)
 .bss           0x00000000        0x0 networking/lib.a(ntpd.o)
 .note.GNU-stack
                0x00000000        0x0 networking/lib.a(ntpd.o)
 .text          0x00000000        0x0 networking/lib.a(ping.o)
 .data          0x00000000        0x0 networking/lib.a(ping.o)
 .bss           0x00000000        0x0 networking/lib.a(ping.o)
 .note.GNU-stack
                0x00000000        0x0 networking/lib.a(ping.o)
 .text          0x00000000        0x0 networking/lib.a(route.o)
 .data          0x00000000        0x0 networking/lib.a(route.o)
 .bss           0x00000000        0x0 networking/lib.a(route.o)
 .note.GNU-stack
                0x00000000        0x0 networking/lib.a(route.o)
 .text          0x00000000        0x0 networking/lib.a(wget.o)
 .data          0x00000000        0x0 networking/lib.a(wget.o)
 .bss           0x00000000        0x0 networking/lib.a(wget.o)
 .note.GNU-stack
                0x00000000        0x0 networking/lib.a(wget.o)
 .text          0x00000000        0x0 networking/udhcp/lib.a(dhcpc.o)
 .data          0x00000000        0x0 networking/udhcp/lib.a(dhcpc.o)
 .bss           0x00000000        0x0 networking/udhcp/lib.a(dhcpc.o)
 .note.GNU-stack
                0x00000000        0x0 networking/udhcp/lib.a(dhcpc.o)
 .text          0x00000000        0x0 networking/udhcp/lib.a(domain_codec.o)
 .data          0x00000000        0x0 networking/udhcp/lib.a(domain_codec.o)
 .bss           0x00000000        0x0 networking/udhcp/lib.a(domain_codec.o)
 .note.GNU-stack
                0x00000000        0x0 networking/udhcp/lib.a(domain_codec.o)
 .text          0x00000000        0x0 networking/udhcp/lib.a(packet.o)
 .data          0x00000000        0x0 networking/udhcp/lib.a(packet.o)
 .bss           0x00000000        0x0 networking/udhcp/lib.a(packet.o)
 .note.GNU-stack
                0x00000000        0x0 networking/udhcp/lib.a(packet.o)
 .text          0x00000000        0x0 networking/udhcp/lib.a(signalpipe.o)
 .data          0x00000000        0x0 networking/udhcp/lib.a(signalpipe.o)
 .bss           0x00000000        0x0 networking/udhcp/lib.a(signalpipe.o)
 .note.GNU-stack
                0x00000000        0x0 networking/udhcp/lib.a(signalpipe.o)
 .text          0x00000000        0x0 networking/udhcp/lib.a(socket.o)
 .data          0x00000000        0x0 networking/udhcp/lib.a(socket.o)
 .bss           0x00000000        0x0 networking/udhcp/lib.a(socket.o)
 .note.GNU-stack
                0x00000000        0x0 networking/udhcp/lib.a(socket.o)
 .text          0x00000000        0x0 networking/udhcp/lib.a(arpping.o)
 .data          0x00000000        0x0 networking/udhcp/lib.a(arpping.o)
 .bss           0x00000000        0x0 networking/udhcp/lib.a(arpping.o)
 .note.GNU-stack
                0x00000000        0x0 networking/udhcp/lib.a(arpping.o)
 .text          0x00000000        0x0 networking/udhcp/lib.a(common.o)
 .data          0x00000000        0x0 networking/udhcp/lib.a(common.o)
 .bss           0x00000000        0x0 networking/udhcp/lib.a(common.o)
 .note.GNU-stack
                0x00000000        0x0 networking/udhcp/lib.a(common.o)
 .text          0x00000000        0x0 procps/lib.a(kill.o)
 .data          0x00000000        0x0 procps/lib.a(kill.o)
 .bss           0x00000000        0x0 procps/lib.a(kill.o)
 .note.GNU-stack
                0x00000000        0x0 procps/lib.a(kill.o)
 .text          0x00000000        0x0 procps/lib.a(pidof.o)
 .data          0x00000000        0x0 procps/lib.a(pidof.o)
 .bss           0x00000000        0x0 procps/lib.a(pidof.o)
 .note.GNU-stack
                0x00000000        0x0 procps/lib.a(pidof.o)
 .text          0x00000000        0x0 procps/lib.a(ps.o)
 .data          0x00000000        0x0 procps/lib.a(ps.o)
 .bss           0x00000000        0x0 procps/lib.a(ps.o)
 .note.GNU-stack
                0x00000000        0x0 procps/lib.a(ps.o)
 .text          0x00000000        0x0 shell/lib.a(ash.o)
 .data          0x00000000        0x0 shell/lib.a(ash.o)
 .bss           0x00000000        0x0 shell/lib.a(ash.o)
 .note.GNU-stack
                0x00000000        0x0 shell/lib.a(ash.o)
 .text          0x00000000        0x0 shell/lib.a(ash_ptr_hack.o)
 .data          0x00000000        0x0 shell/lib.a(ash_ptr_hack.o)
 .bss           0x00000000        0x0 shell/lib.a(ash_ptr_hack.o)
 .note.GNU-stack
                0x00000000        0x0 shell/lib.a(ash_ptr_hack.o)
 .text          0x00000000        0x0 shell/lib.a(math.o)
 .data          0x00000000        0x0 shell/lib.a(math.o)
 .bss           0x00000000        0x0 shell/lib.a(math.o)
 .note.GNU-stack
                0x00000000        0x0 shell/lib.a(math.o)
 .text          0x00000000        0x0 shell/lib.a(shell_common.o)
 .data          0x00000000        0x0 shell/lib.a(shell_common.o)
 .bss           0x00000000        0x0 shell/lib.a(shell_common.o)
 .note.GNU-stack
                0x00000000        0x0 shell/lib.a(shell_common.o)
 .text          0x00000000        0x0 sysklogd/lib.a(klogd.o)
 .data          0x00000000        0x0 sysklogd/lib.a(klogd.o)
 .bss           0x00000000        0x0 sysklogd/lib.a(klogd.o)
 .note.GNU-stack
                0x00000000        0x0 sysklogd/lib.a(klogd.o)
 .text          0x00000000        0x0 sysklogd/lib.a(syslogd_and_logger.o)
 .data          0x00000000        0x0 sysklogd/lib.a(syslogd_and_logger.o)
 .bss           0x00000000        0x0 sysklogd/lib.a(syslogd_and_logger.o)
 .note.GNU-stack
                0x00000000        0x0 sysklogd/lib.a(syslogd_and_logger.o)
 .text          0x00000000        0x0 util-linux/lib.a(dmesg.o)
 .data          0x00000000        0x0 util-linux/lib.a(dmesg.o)
 .bss           0x00000000        0x0 util-linux/lib.a(dmesg.o)
 .note.GNU-stack
                0x00000000        0x0 util-linux/lib.a(dmesg.o)
 .text          0x00000000        0x0 util-linux/lib.a(fdformat.o)
 .data          0x00000000        0x0 util-linux/lib.a(fdformat.o)
 .bss           0x00000000        0x0 util-linux/lib.a(fdformat.o)
 .note.GNU-stack
                0x00000000        0x0 util-linux/lib.a(fdformat.o)
 .text          0x00000000        0x0 util-linux/lib.a(fdisk.o)
 .data          0x00000000        0x0 util-linux/lib.a(fdisk.o)
 .bss           0x00000000        0x0 util-linux/lib.a(fdisk.o)
 .note.GNU-stack
                0x00000000        0x0 util-linux/lib.a(fdisk.o)
 .text          0x00000000        0x0 util-linux/lib.a(getopt.o)
 .data          0x00000000        0x0 util-linux/lib.a(getopt.o)
 .bss           0x00000000        0x0 util-linux/lib.a(getopt.o)
 .note.GNU-stack
                0x00000000        0x0 util-linux/lib.a(getopt.o)
 .text          0x00000000        0x0 util-linux/lib.a(ipcs.o)
 .data          0x00000000        0x0 util-linux/lib.a(ipcs.o)
 .bss           0x00000000        0x0 util-linux/lib.a(ipcs.o)
 .note.GNU-stack
                0x00000000        0x0 util-linux/lib.a(ipcs.o)
 .text          0x00000000        0x0 util-linux/lib.a(losetup.o)
 .data          0x00000000        0x0 util-linux/lib.a(losetup.o)
 .bss           0x00000000        0x0 util-linux/lib.a(losetup.o)
 .note.GNU-stack
                0x00000000        0x0 util-linux/lib.a(losetup.o)
 .text          0x00000000        0x0 util-linux/lib.a(mdev.o)
 .data          0x00000000        0x0 util-linux/lib.a(mdev.o)
 .bss           0x00000000        0x0 util-linux/lib.a(mdev.o)
 .note.GNU-stack
                0x00000000        0x0 util-linux/lib.a(mdev.o)
 .text          0x00000000        0x0 util-linux/lib.a(mkfs_ext2.o)
 .data          0x00000000        0x0 util-linux/lib.a(mkfs_ext2.o)
 .bss           0x00000000        0x0 util-linux/lib.a(mkfs_ext2.o)
 .note.GNU-stack
                0x00000000        0x0 util-linux/lib.a(mkfs_ext2.o)
 .text          0x00000000        0x0 util-linux/lib.a(mkfs_reiser.o)
 .data          0x00000000        0x0 util-linux/lib.a(mkfs_reiser.o)
 .bss           0x00000000        0x0 util-linux/lib.a(mkfs_reiser.o)
 .note.GNU-stack
                0x00000000        0x0 util-linux/lib.a(mkfs_reiser.o)
 .text          0x00000000        0x0 util-linux/lib.a(mkfs_vfat.o)
 .data          0x00000000        0x0 util-linux/lib.a(mkfs_vfat.o)
 .bss           0x00000000        0x0 util-linux/lib.a(mkfs_vfat.o)
 .note.GNU-stack
                0x00000000        0x0 util-linux/lib.a(mkfs_vfat.o)
 .text          0x00000000        0x0 util-linux/lib.a(mount.o)
 .data          0x00000000        0x0 util-linux/lib.a(mount.o)
 .bss           0x00000000        0x0 util-linux/lib.a(mount.o)
 .note.GNU-stack
                0x00000000        0x0 util-linux/lib.a(mount.o)
 .text          0x00000000        0x0 util-linux/lib.a(swaponoff.o)
 .data          0x00000000        0x0 util-linux/lib.a(swaponoff.o)
 .bss           0x00000000        0x0 util-linux/lib.a(swaponoff.o)
 .note.GNU-stack
                0x00000000        0x0 util-linux/lib.a(swaponoff.o)
 .text          0x00000000        0x0 util-linux/lib.a(umount.o)
 .data          0x00000000        0x0 util-linux/lib.a(umount.o)
 .bss           0x00000000        0x0 util-linux/lib.a(umount.o)
 .note.GNU-stack
                0x00000000        0x0 util-linux/lib.a(umount.o)
 .text          0x00000000        0x0 archival/lib.a(tar.o)
 .data          0x00000000        0x0 archival/lib.a(tar.o)
 .bss           0x00000000        0x0 archival/lib.a(tar.o)
 .note.GNU-stack
                0x00000000        0x0 archival/lib.a(tar.o)
 .text          0x00000000        0x0 archival/libarchive/lib.a(data_extract_all.o)
 .data          0x00000000        0x0 archival/libarchive/lib.a(data_extract_all.o)
 .bss           0x00000000        0x0 archival/libarchive/lib.a(data_extract_all.o)
 .note.GNU-stack
                0x00000000        0x0 archival/libarchive/lib.a(data_extract_all.o)
 .text          0x00000000        0x0 archival/libarchive/lib.a(data_extract_to_stdout.o)
 .data          0x00000000        0x0 archival/libarchive/lib.a(data_extract_to_stdout.o)
 .bss           0x00000000        0x0 archival/libarchive/lib.a(data_extract_to_stdout.o)
 .note.GNU-stack
                0x00000000        0x0 archival/libarchive/lib.a(data_extract_to_stdout.o)
 .text          0x00000000        0x0 archival/libarchive/lib.a(data_skip.o)
 .data          0x00000000        0x0 archival/libarchive/lib.a(data_skip.o)
 .bss           0x00000000        0x0 archival/libarchive/lib.a(data_skip.o)
 .note.GNU-stack
                0x00000000        0x0 archival/libarchive/lib.a(data_skip.o)
 .text          0x00000000        0x0 archival/libarchive/lib.a(filter_accept_reject_list.o)
 .data          0x00000000        0x0 archival/libarchive/lib.a(filter_accept_reject_list.o)
 .bss           0x00000000        0x0 archival/libarchive/lib.a(filter_accept_reject_list.o)
 .note.GNU-stack
                0x00000000        0x0 archival/libarchive/lib.a(filter_accept_reject_list.o)
 .text          0x00000000        0x0 archival/libarchive/lib.a(find_list_entry.o)
 .data          0x00000000        0x0 archival/libarchive/lib.a(find_list_entry.o)
 .bss           0x00000000        0x0 archival/libarchive/lib.a(find_list_entry.o)
 .note.GNU-stack
                0x00000000        0x0 archival/libarchive/lib.a(find_list_entry.o)
 .text          0x00000000        0x0 archival/libarchive/lib.a(get_header_tar.o)
 .data          0x00000000        0x0 archival/libarchive/lib.a(get_header_tar.o)
 .bss           0x00000000        0x0 archival/libarchive/lib.a(get_header_tar.o)
 .note.GNU-stack
                0x00000000        0x0 archival/libarchive/lib.a(get_header_tar.o)
 .text          0x00000000        0x0 archival/libarchive/lib.a(header_list.o)
 .data          0x00000000        0x0 archival/libarchive/lib.a(header_list.o)
 .bss           0x00000000        0x0 archival/libarchive/lib.a(header_list.o)
 .note.GNU-stack
                0x00000000        0x0 archival/libarchive/lib.a(header_list.o)
 .text          0x00000000        0x0 archival/libarchive/lib.a(header_verbose_list.o)
 .data          0x00000000        0x0 archival/libarchive/lib.a(header_verbose_list.o)
 .bss           0x00000000        0x0 archival/libarchive/lib.a(header_verbose_list.o)
 .note.GNU-stack
                0x00000000        0x0 archival/libarchive/lib.a(header_verbose_list.o)
 .text          0x00000000        0x0 archival/libarchive/lib.a(init_handle.o)
 .data          0x00000000        0x0 archival/libarchive/lib.a(init_handle.o)
 .bss           0x00000000        0x0 archival/libarchive/lib.a(init_handle.o)
 .note.GNU-stack
                0x00000000        0x0 archival/libarchive/lib.a(init_handle.o)
 .text          0x00000000        0x0 archival/libarchive/lib.a(seek_by_jump.o)
 .data          0x00000000        0x0 archival/libarchive/lib.a(seek_by_jump.o)
 .bss           0x00000000        0x0 archival/libarchive/lib.a(seek_by_jump.o)
 .note.GNU-stack
                0x00000000        0x0 archival/libarchive/lib.a(seek_by_jump.o)
 .text          0x00000000        0x0 archival/libarchive/lib.a(seek_by_read.o)
 .data          0x00000000        0x0 archival/libarchive/lib.a(seek_by_read.o)
 .bss           0x00000000        0x0 archival/libarchive/lib.a(seek_by_read.o)
 .note.GNU-stack
                0x00000000        0x0 archival/libarchive/lib.a(seek_by_read.o)
 .text          0x00000000        0x0 archival/libarchive/lib.a(data_align.o)
 .data          0x00000000        0x0 archival/libarchive/lib.a(data_align.o)
 .bss           0x00000000        0x0 archival/libarchive/lib.a(data_align.o)
 .note.GNU-stack
                0x00000000        0x0 archival/libarchive/lib.a(data_align.o)
 .text          0x00000000        0x0 archival/libarchive/lib.a(filter_accept_all.o)
 .data          0x00000000        0x0 archival/libarchive/lib.a(filter_accept_all.o)
 .bss           0x00000000        0x0 archival/libarchive/lib.a(filter_accept_all.o)
 .note.GNU-stack
                0x00000000        0x0 archival/libarchive/lib.a(filter_accept_all.o)
 .text          0x00000000        0x0 archival/libarchive/lib.a(header_skip.o)
 .data          0x00000000        0x0 archival/libarchive/lib.a(header_skip.o)
 .bss           0x00000000        0x0 archival/libarchive/lib.a(header_skip.o)
 .note.GNU-stack
                0x00000000        0x0 archival/libarchive/lib.a(header_skip.o)
 .text          0x00000000        0x0 coreutils/lib.a(basename.o)
 .data          0x00000000        0x0 coreutils/lib.a(basename.o)
 .bss           0x00000000        0x0 coreutils/lib.a(basename.o)
 .note.GNU-stack
                0x00000000        0x0 coreutils/lib.a(basename.o)
 .text          0x00000000        0x0 coreutils/lib.a(cat.o)
 .data          0x00000000        0x0 coreutils/lib.a(cat.o)
 .bss           0x00000000        0x0 coreutils/lib.a(cat.o)
 .note.GNU-stack
                0x00000000        0x0 coreutils/lib.a(cat.o)
 .text          0x00000000        0x0 coreutils/lib.a(chgrp.o)
 .data          0x00000000        0x0 coreutils/lib.a(chgrp.o)
 .bss           0x00000000        0x0 coreutils/lib.a(chgrp.o)
 .note.GNU-stack
                0x00000000        0x0 coreutils/lib.a(chgrp.o)
 .text          0x00000000        0x0 coreutils/lib.a(chmod.o)
 .data          0x00000000        0x0 coreutils/lib.a(chmod.o)
 .bss           0x00000000        0x0 coreutils/lib.a(chmod.o)
 .note.GNU-stack
                0x00000000        0x0 coreutils/lib.a(chmod.o)
 .text          0x00000000        0x0 coreutils/lib.a(chown.o)
 .data          0x00000000        0x0 coreutils/lib.a(chown.o)
 .bss           0x00000000        0x0 coreutils/lib.a(chown.o)
 .note.GNU-stack
                0x00000000        0x0 coreutils/lib.a(chown.o)
 .text          0x00000000        0x0 coreutils/lib.a(chroot.o)
 .data          0x00000000        0x0 coreutils/lib.a(chroot.o)
 .bss           0x00000000        0x0 coreutils/lib.a(chroot.o)
 .note.GNU-stack
                0x00000000        0x0 coreutils/lib.a(chroot.o)
 .text          0x00000000        0x0 coreutils/lib.a(cp.o)
 .data          0x00000000        0x0 coreutils/lib.a(cp.o)
 .bss           0x00000000        0x0 coreutils/lib.a(cp.o)
 .note.GNU-stack
                0x00000000        0x0 coreutils/lib.a(cp.o)
 .text          0x00000000        0x0 coreutils/lib.a(cut.o)
 .data          0x00000000        0x0 coreutils/lib.a(cut.o)
 .bss           0x00000000        0x0 coreutils/lib.a(cut.o)
 .note.GNU-stack
                0x00000000        0x0 coreutils/lib.a(cut.o)
 .text          0x00000000        0x0 coreutils/lib.a(date.o)
 .data          0x00000000        0x0 coreutils/lib.a(date.o)
 .bss           0x00000000        0x0 coreutils/lib.a(date.o)
 .note.GNU-stack
                0x00000000        0x0 coreutils/lib.a(date.o)
 .text          0x00000000        0x0 coreutils/lib.a(dd.o)
 .data          0x00000000        0x0 coreutils/lib.a(dd.o)
 .bss           0x00000000        0x0 coreutils/lib.a(dd.o)
 .note.GNU-stack
                0x00000000        0x0 coreutils/lib.a(dd.o)
 .text          0x00000000        0x0 coreutils/lib.a(echo.o)
 .data          0x00000000        0x0 coreutils/lib.a(echo.o)
 .bss           0x00000000        0x0 coreutils/lib.a(echo.o)
 .note.GNU-stack
                0x00000000        0x0 coreutils/lib.a(echo.o)
 .text          0x00000000        0x0 coreutils/lib.a(env.o)
 .data          0x00000000        0x0 coreutils/lib.a(env.o)
 .bss           0x00000000        0x0 coreutils/lib.a(env.o)
 .note.GNU-stack
                0x00000000        0x0 coreutils/lib.a(env.o)
 .text          0x00000000        0x0 coreutils/lib.a(expr.o)
 .data          0x00000000        0x0 coreutils/lib.a(expr.o)
 .bss           0x00000000        0x0 coreutils/lib.a(expr.o)
 .note.GNU-stack
                0x00000000        0x0 coreutils/lib.a(expr.o)
 .text          0x00000000        0x0 coreutils/lib.a(false.o)
 .data          0x00000000        0x0 coreutils/lib.a(false.o)
 .bss           0x00000000        0x0 coreutils/lib.a(false.o)
 .note.GNU-stack
                0x00000000        0x0 coreutils/lib.a(false.o)
 .text          0x00000000        0x0 coreutils/lib.a(fsync.o)
 .data          0x00000000        0x0 coreutils/lib.a(fsync.o)
 .bss           0x00000000        0x0 coreutils/lib.a(fsync.o)
 .note.GNU-stack
                0x00000000        0x0 coreutils/lib.a(fsync.o)
 .text          0x00000000        0x0 coreutils/lib.a(head.o)
 .data          0x00000000        0x0 coreutils/lib.a(head.o)
 .bss           0x00000000        0x0 coreutils/lib.a(head.o)
 .note.GNU-stack
                0x00000000        0x0 coreutils/lib.a(head.o)
 .text          0x00000000        0x0 coreutils/lib.a(hostid.o)
 .data          0x00000000        0x0 coreutils/lib.a(hostid.o)
 .bss           0x00000000        0x0 coreutils/lib.a(hostid.o)
 .note.GNU-stack
                0x00000000        0x0 coreutils/lib.a(hostid.o)
 .text          0x00000000        0x0 coreutils/lib.a(install.o)
 .data          0x00000000        0x0 coreutils/lib.a(install.o)
 .bss           0x00000000        0x0 coreutils/lib.a(install.o)
 .note.GNU-stack
                0x00000000        0x0 coreutils/lib.a(install.o)
 .text          0x00000000        0x0 coreutils/lib.a(ln.o)
 .data          0x00000000        0x0 coreutils/lib.a(ln.o)
 .bss           0x00000000        0x0 coreutils/lib.a(ln.o)
 .note.GNU-stack
                0x00000000        0x0 coreutils/lib.a(ln.o)
 .text          0x00000000        0x0 coreutils/lib.a(logname.o)
 .data          0x00000000        0x0 coreutils/lib.a(logname.o)
 .bss           0x00000000        0x0 coreutils/lib.a(logname.o)
 .note.GNU-stack
                0x00000000        0x0 coreutils/lib.a(logname.o)
 .text          0x00000000        0x0 coreutils/lib.a(ls.o)
 .data          0x00000000        0x0 coreutils/lib.a(ls.o)
 .bss           0x00000000        0x0 coreutils/lib.a(ls.o)
 .note.GNU-stack
                0x00000000        0x0 coreutils/lib.a(ls.o)
 .text          0x00000000        0x0 coreutils/lib.a(mkdir.o)
 .data          0x00000000        0x0 coreutils/lib.a(mkdir.o)
 .bss           0x00000000        0x0 coreutils/lib.a(mkdir.o)
 .note.GNU-stack
                0x00000000        0x0 coreutils/lib.a(mkdir.o)
 .text          0x00000000        0x0 coreutils/lib.a(mknod.o)
 .data          0x00000000        0x0 coreutils/lib.a(mknod.o)
 .bss           0x00000000        0x0 coreutils/lib.a(mknod.o)
 .note.GNU-stack
                0x00000000        0x0 coreutils/lib.a(mknod.o)
 .text          0x00000000        0x0 coreutils/lib.a(mv.o)
 .data          0x00000000        0x0 coreutils/lib.a(mv.o)
 .bss           0x00000000        0x0 coreutils/lib.a(mv.o)
 .note.GNU-stack
                0x00000000        0x0 coreutils/lib.a(mv.o)
 .text          0x00000000        0x0 coreutils/lib.a(printenv.o)
 .data          0x00000000        0x0 coreutils/lib.a(printenv.o)
 .bss           0x00000000        0x0 coreutils/lib.a(printenv.o)
 .note.GNU-stack
                0x00000000        0x0 coreutils/lib.a(printenv.o)
 .text          0x00000000        0x0 coreutils/lib.a(printf.o)
 .data          0x00000000        0x0 coreutils/lib.a(printf.o)
 .bss           0x00000000        0x0 coreutils/lib.a(printf.o)
 .note.GNU-stack
                0x00000000        0x0 coreutils/lib.a(printf.o)
 .text          0x00000000        0x0 coreutils/lib.a(pwd.o)
 .data          0x00000000        0x0 coreutils/lib.a(pwd.o)
 .bss           0x00000000        0x0 coreutils/lib.a(pwd.o)
 .note.GNU-stack
                0x00000000        0x0 coreutils/lib.a(pwd.o)
 .text          0x00000000        0x0 coreutils/lib.a(rm.o)
 .data          0x00000000        0x0 coreutils/lib.a(rm.o)
 .bss           0x00000000        0x0 coreutils/lib.a(rm.o)
 .note.GNU-stack
                0x00000000        0x0 coreutils/lib.a(rm.o)
 .text          0x00000000        0x0 coreutils/lib.a(sleep.o)
 .data          0x00000000        0x0 coreutils/lib.a(sleep.o)
 .bss           0x00000000        0x0 coreutils/lib.a(sleep.o)
 .note.GNU-stack
                0x00000000        0x0 coreutils/lib.a(sleep.o)
 .text          0x00000000        0x0 coreutils/lib.a(sort.o)
 .data          0x00000000        0x0 coreutils/lib.a(sort.o)
 .bss           0x00000000        0x0 coreutils/lib.a(sort.o)
 .note.GNU-stack
                0x00000000        0x0 coreutils/lib.a(sort.o)
 .text          0x00000000        0x0 coreutils/lib.a(stty.o)
 .data          0x00000000        0x0 coreutils/lib.a(stty.o)
 .bss           0x00000000        0x0 coreutils/lib.a(stty.o)
 .note.GNU-stack
                0x00000000        0x0 coreutils/lib.a(stty.o)
 .text          0x00000000        0x0 coreutils/lib.a(sync.o)
 .data          0x00000000        0x0 coreutils/lib.a(sync.o)
 .bss           0x00000000        0x0 coreutils/lib.a(sync.o)
 .note.GNU-stack
                0x00000000        0x0 coreutils/lib.a(sync.o)
 .text          0x00000000        0x0 coreutils/lib.a(test.o)
 .data          0x00000000        0x0 coreutils/lib.a(test.o)
 .bss           0x00000000        0x0 coreutils/lib.a(test.o)
 .note.GNU-stack
                0x00000000        0x0 coreutils/lib.a(test.o)
 .text          0x00000000        0x0 coreutils/lib.a(test_ptr_hack.o)
 .data          0x00000000        0x0 coreutils/lib.a(test_ptr_hack.o)
 .bss           0x00000000        0x0 coreutils/lib.a(test_ptr_hack.o)
 .note.GNU-stack
                0x00000000        0x0 coreutils/lib.a(test_ptr_hack.o)
 .text          0x00000000        0x0 coreutils/lib.a(touch.o)
 .data          0x00000000        0x0 coreutils/lib.a(touch.o)
 .bss           0x00000000        0x0 coreutils/lib.a(touch.o)
 .note.GNU-stack
                0x00000000        0x0 coreutils/lib.a(touch.o)
 .text          0x00000000        0x0 coreutils/lib.a(tr.o)
 .data          0x00000000        0x0 coreutils/lib.a(tr.o)
 .bss           0x00000000        0x0 coreutils/lib.a(tr.o)
 .note.GNU-stack
                0x00000000        0x0 coreutils/lib.a(tr.o)
 .text          0x00000000        0x0 coreutils/lib.a(true.o)
 .data          0x00000000        0x0 coreutils/lib.a(true.o)
 .bss           0x00000000        0x0 coreutils/lib.a(true.o)
 .note.GNU-stack
                0x00000000        0x0 coreutils/lib.a(true.o)
 .text          0x00000000        0x0 coreutils/lib.a(tty.o)
 .data          0x00000000        0x0 coreutils/lib.a(tty.o)
 .bss           0x00000000        0x0 coreutils/lib.a(tty.o)
 .note.GNU-stack
                0x00000000        0x0 coreutils/lib.a(tty.o)
 .text          0x00000000        0x0 coreutils/lib.a(uniq.o)
 .data          0x00000000        0x0 coreutils/lib.a(uniq.o)
 .bss           0x00000000        0x0 coreutils/lib.a(uniq.o)
 .note.GNU-stack
                0x00000000        0x0 coreutils/lib.a(uniq.o)
 .text          0x00000000        0x0 coreutils/lib.a(usleep.o)
 .data          0x00000000        0x0 coreutils/lib.a(usleep.o)
 .bss           0x00000000        0x0 coreutils/lib.a(usleep.o)
 .note.GNU-stack
                0x00000000        0x0 coreutils/lib.a(usleep.o)
 .text          0x00000000        0x0 coreutils/lib.a(uudecode.o)
 .data          0x00000000        0x0 coreutils/lib.a(uudecode.o)
 .bss           0x00000000        0x0 coreutils/lib.a(uudecode.o)
 .note.GNU-stack
                0x00000000        0x0 coreutils/lib.a(uudecode.o)
 .text          0x00000000        0x0 coreutils/lib.a(uuencode.o)
 .data          0x00000000        0x0 coreutils/lib.a(uuencode.o)
 .bss           0x00000000        0x0 coreutils/lib.a(uuencode.o)
 .note.GNU-stack
                0x00000000        0x0 coreutils/lib.a(uuencode.o)
 .text          0x00000000        0x0 coreutils/lib.a(wc.o)
 .data          0x00000000        0x0 coreutils/lib.a(wc.o)
 .bss           0x00000000        0x0 coreutils/lib.a(wc.o)
 .note.GNU-stack
                0x00000000        0x0 coreutils/lib.a(wc.o)
 .text          0x00000000        0x0 coreutils/lib.a(yes.o)
 .data          0x00000000        0x0 coreutils/lib.a(yes.o)
 .bss           0x00000000        0x0 coreutils/lib.a(yes.o)
 .note.GNU-stack
                0x00000000        0x0 coreutils/lib.a(yes.o)
 .text          0x00000000        0x0 coreutils/libcoreutils/lib.a(cp_mv_stat.o)
 .data          0x00000000        0x0 coreutils/libcoreutils/lib.a(cp_mv_stat.o)
 .bss           0x00000000        0x0 coreutils/libcoreutils/lib.a(cp_mv_stat.o)
 .note.GNU-stack
                0x00000000        0x0 coreutils/libcoreutils/lib.a(cp_mv_stat.o)
 .text          0x00000000        0x0 coreutils/libcoreutils/lib.a(getopt_mk_fifo_nod.o)
 .data          0x00000000        0x0 coreutils/libcoreutils/lib.a(getopt_mk_fifo_nod.o)
 .bss           0x00000000        0x0 coreutils/libcoreutils/lib.a(getopt_mk_fifo_nod.o)
 .note.GNU-stack
                0x00000000        0x0 coreutils/libcoreutils/lib.a(getopt_mk_fifo_nod.o)
 .text          0x00000000        0x0 debianutils/lib.a(start_stop_daemon.o)
 .data          0x00000000        0x0 debianutils/lib.a(start_stop_daemon.o)
 .bss           0x00000000        0x0 debianutils/lib.a(start_stop_daemon.o)
 .note.GNU-stack
                0x00000000        0x0 debianutils/lib.a(start_stop_daemon.o)
 .text          0x00000000        0x0 editors/lib.a(diff.o)
 .data          0x00000000        0x0 editors/lib.a(diff.o)
 .bss           0x00000000        0x0 editors/lib.a(diff.o)
 .note.GNU-stack
                0x00000000        0x0 editors/lib.a(diff.o)
 .text          0x00000000        0x0 editors/lib.a(sed.o)
 .data          0x00000000        0x0 editors/lib.a(sed.o)
 .bss           0x00000000        0x0 editors/lib.a(sed.o)
 .note.GNU-stack
                0x00000000        0x0 editors/lib.a(sed.o)
 .text          0x00000000        0x0 findutils/lib.a(grep.o)
 .data          0x00000000        0x0 findutils/lib.a(grep.o)
 .bss           0x00000000        0x0 findutils/lib.a(grep.o)
 .note.GNU-stack
                0x00000000        0x0 findutils/lib.a(grep.o)
 .text          0x00000000        0x0 init/lib.a(halt.o)
 .data          0x00000000        0x0 init/lib.a(halt.o)
 .bss           0x00000000        0x0 init/lib.a(halt.o)
 .note.GNU-stack
                0x00000000        0x0 init/lib.a(halt.o)
 .text          0x00000000        0x0 init/lib.a(init.o)
 .data          0x00000000        0x0 init/lib.a(init.o)
 .bss           0x00000000        0x0 init/lib.a(init.o)
 .note.GNU-stack
                0x00000000        0x0 init/lib.a(init.o)
 .text          0x00000000        0x0 libbb/lib.a(ask_confirmation.o)
 .data          0x00000000        0x0 libbb/lib.a(ask_confirmation.o)
 .bss           0x00000000        0x0 libbb/lib.a(ask_confirmation.o)
 .note.GNU-stack
                0x00000000        0x0 libbb/lib.a(ask_confirmation.o)
 .text          0x00000000        0x0 libbb/lib.a(bb_askpass.o)
 .data          0x00000000        0x0 libbb/lib.a(bb_askpass.o)
 .bss           0x00000000        0x0 libbb/lib.a(bb_askpass.o)
 .note.GNU-stack
                0x00000000        0x0 libbb/lib.a(bb_askpass.o)
 .text          0x00000000        0x0 libbb/lib.a(bb_do_delay.o)
 .data          0x00000000        0x0 libbb/lib.a(bb_do_delay.o)
 .bss           0x00000000        0x0 libbb/lib.a(bb_do_delay.o)
 .note.GNU-stack
                0x00000000        0x0 libbb/lib.a(bb_do_delay.o)
 .text          0x00000000        0x0 libbb/lib.a(bb_pwd.o)
 .data          0x00000000        0x0 libbb/lib.a(bb_pwd.o)
 .bss           0x00000000        0x0 libbb/lib.a(bb_pwd.o)
 .text.xgetgrgid
                0x00000000       0x28 libbb/lib.a(bb_pwd.o)
 .text.xgid2group
                0x00000000       0x10 libbb/lib.a(bb_pwd.o)
 .note.GNU-stack
                0x00000000        0x0 libbb/lib.a(bb_pwd.o)
 .text          0x00000000        0x0 libbb/lib.a(bb_qsort.o)
 .data          0x00000000        0x0 libbb/lib.a(bb_qsort.o)
 .bss           0x00000000        0x0 libbb/lib.a(bb_qsort.o)
 .note.GNU-stack
                0x00000000        0x0 libbb/lib.a(bb_qsort.o)
 .text          0x00000000        0x0 libbb/lib.a(change_identity.o)
 .data          0x00000000        0x0 libbb/lib.a(change_identity.o)
 .bss           0x00000000        0x0 libbb/lib.a(change_identity.o)
 .note.GNU-stack
                0x00000000        0x0 libbb/lib.a(change_identity.o)
 .text          0x00000000        0x0 libbb/lib.a(compare_string_array.o)
 .data          0x00000000        0x0 libbb/lib.a(compare_string_array.o)
 .bss           0x00000000        0x0 libbb/lib.a(compare_string_array.o)
 .text.index_in_str_array
                0x00000000       0x40 libbb/lib.a(compare_string_array.o)
 .note.GNU-stack
                0x00000000        0x0 libbb/lib.a(compare_string_array.o)
 .text          0x00000000        0x0 libbb/lib.a(copy_file.o)
 .data          0x00000000        0x0 libbb/lib.a(copy_file.o)
 .bss           0x00000000        0x0 libbb/lib.a(copy_file.o)
 .note.GNU-stack
                0x00000000        0x0 libbb/lib.a(copy_file.o)
 .text          0x00000000        0x0 libbb/lib.a(correct_password.o)
 .data          0x00000000        0x0 libbb/lib.a(correct_password.o)
 .bss           0x00000000        0x0 libbb/lib.a(correct_password.o)
 .note.GNU-stack
                0x00000000        0x0 libbb/lib.a(correct_password.o)
 .text          0x00000000        0x0 libbb/lib.a(crc32.o)
 .data          0x00000000        0x0 libbb/lib.a(crc32.o)
 .bss           0x00000000        0x0 libbb/lib.a(crc32.o)
 .text.crc32_block_endian1
                0x00000000       0x24 libbb/lib.a(crc32.o)
 .note.GNU-stack
                0x00000000        0x0 libbb/lib.a(crc32.o)
 COMMON         0x00000000        0x4 libbb/lib.a(crc32.o)
 .text          0x00000000        0x0 libbb/lib.a(create_icmp_socket.o)
 .data          0x00000000        0x0 libbb/lib.a(create_icmp_socket.o)
 .bss           0x00000000        0x0 libbb/lib.a(create_icmp_socket.o)
 .note.GNU-stack
                0x00000000        0x0 libbb/lib.a(create_icmp_socket.o)
 .text          0x00000000        0x0 libbb/lib.a(device_open.o)
 .data          0x00000000        0x0 libbb/lib.a(device_open.o)
 .bss           0x00000000        0x0 libbb/lib.a(device_open.o)
 .note.GNU-stack
                0x00000000        0x0 libbb/lib.a(device_open.o)
 .text          0x00000000        0x0 libbb/lib.a(execable.o)
 .data          0x00000000        0x0 libbb/lib.a(execable.o)
 .bss           0x00000000        0x0 libbb/lib.a(execable.o)
 .text.execable_file
                0x00000000       0x54 libbb/lib.a(execable.o)
 .text.find_execable
                0x00000000       0x74 libbb/lib.a(execable.o)
 .text.exists_execable
                0x00000000       0x54 libbb/lib.a(execable.o)
 .note.GNU-stack
                0x00000000        0x0 libbb/lib.a(execable.o)
 .text          0x00000000        0x0 libbb/lib.a(fclose_nonstdin.o)
 .data          0x00000000        0x0 libbb/lib.a(fclose_nonstdin.o)
 .bss           0x00000000        0x0 libbb/lib.a(fclose_nonstdin.o)
 .note.GNU-stack
                0x00000000        0x0 libbb/lib.a(fclose_nonstdin.o)
 .text          0x00000000        0x0 libbb/lib.a(fflush_stdout_and_exit.o)
 .data          0x00000000        0x0 libbb/lib.a(fflush_stdout_and_exit.o)
 .bss           0x00000000        0x0 libbb/lib.a(fflush_stdout_and_exit.o)
 .note.GNU-stack
                0x00000000        0x0 libbb/lib.a(fflush_stdout_and_exit.o)
 .text          0x00000000        0x0 libbb/lib.a(find_mount_point.o)
 .data          0x00000000        0x0 libbb/lib.a(find_mount_point.o)
 .bss           0x00000000        0x0 libbb/lib.a(find_mount_point.o)
 .note.GNU-stack
                0x00000000        0x0 libbb/lib.a(find_mount_point.o)
 .text          0x00000000        0x0 libbb/lib.a(find_pid_by_name.o)
 .data          0x00000000        0x0 libbb/lib.a(find_pid_by_name.o)
 .bss           0x00000000        0x0 libbb/lib.a(find_pid_by_name.o)
 .note.GNU-stack
                0x00000000        0x0 libbb/lib.a(find_pid_by_name.o)
 .text          0x00000000        0x0 libbb/lib.a(get_line_from_file.o)
 .data          0x00000000        0x0 libbb/lib.a(get_line_from_file.o)
 .bss           0x00000000        0x0 libbb/lib.a(get_line_from_file.o)
 .text.xmalloc_fgets
                0x00000000       0x10 libbb/lib.a(get_line_from_file.o)
 .note.GNU-stack
                0x00000000        0x0 libbb/lib.a(get_line_from_file.o)
 .text          0x00000000        0x0 libbb/lib.a(get_volsize.o)
 .data          0x00000000        0x0 libbb/lib.a(get_volsize.o)
 .bss           0x00000000        0x0 libbb/lib.a(get_volsize.o)
 .note.GNU-stack
                0x00000000        0x0 libbb/lib.a(get_volsize.o)
 .text          0x00000000        0x0 libbb/lib.a(getopt32.o)
 .data          0x00000000        0x0 libbb/lib.a(getopt32.o)
 .bss           0x00000000        0x0 libbb/lib.a(getopt32.o)
 .note.GNU-stack
                0x00000000        0x0 libbb/lib.a(getopt32.o)
 .text          0x00000000        0x0 libbb/lib.a(herror_msg.o)
 .data          0x00000000        0x0 libbb/lib.a(herror_msg.o)
 .bss           0x00000000        0x0 libbb/lib.a(herror_msg.o)
 .note.GNU-stack
                0x00000000        0x0 libbb/lib.a(herror_msg.o)
 .text          0x00000000        0x0 libbb/lib.a(human_readable.o)
 .data          0x00000000        0x0 libbb/lib.a(human_readable.o)
 .bss           0x00000000        0x0 libbb/lib.a(human_readable.o)
 .text.smart_ulltoa4
                0x00000000      0x18c libbb/lib.a(human_readable.o)
 .note.GNU-stack
                0x00000000        0x0 libbb/lib.a(human_readable.o)
 .text          0x00000000        0x0 libbb/lib.a(inet_common.o)
 .data          0x00000000        0x0 libbb/lib.a(inet_common.o)
 .bss           0x00000000        0x0 libbb/lib.a(inet_common.o)
 .note.GNU-stack
                0x00000000        0x0 libbb/lib.a(inet_common.o)
 .text          0x00000000        0x0 libbb/lib.a(info_msg.o)
 .data          0x00000000        0x0 libbb/lib.a(info_msg.o)
 .bss           0x00000000        0x0 libbb/lib.a(info_msg.o)
 .note.GNU-stack
                0x00000000        0x0 libbb/lib.a(info_msg.o)
 .text          0x00000000        0x0 libbb/lib.a(inode_hash.o)
 .data          0x00000000        0x0 libbb/lib.a(inode_hash.o)
 .bss           0x00000000        0x0 libbb/lib.a(inode_hash.o)
 .note.GNU-stack
                0x00000000        0x0 libbb/lib.a(inode_hash.o)
 .text          0x00000000        0x0 libbb/lib.a(isdirectory.o)
 .data          0x00000000        0x0 libbb/lib.a(isdirectory.o)
 .bss           0x00000000        0x0 libbb/lib.a(isdirectory.o)
 .note.GNU-stack
                0x00000000        0x0 libbb/lib.a(isdirectory.o)
 .text          0x00000000        0x0 libbb/lib.a(kernel_version.o)
 .data          0x00000000        0x0 libbb/lib.a(kernel_version.o)
 .bss           0x00000000        0x0 libbb/lib.a(kernel_version.o)
 .note.GNU-stack
                0x00000000        0x0 libbb/lib.a(kernel_version.o)
 .text          0x00000000        0x0 libbb/lib.a(lineedit.o)
 .data          0x00000000        0x0 libbb/lib.a(lineedit.o)
 .bss           0x00000000        0x0 libbb/lib.a(lineedit.o)
 .note.GNU-stack
                0x00000000        0x0 libbb/lib.a(lineedit.o)
 .text          0x00000000        0x0 libbb/lib.a(lineedit_ptr_hack.o)
 .data          0x00000000        0x0 libbb/lib.a(lineedit_ptr_hack.o)
 .bss           0x00000000        0x0 libbb/lib.a(lineedit_ptr_hack.o)
 .note.GNU-stack
                0x00000000        0x0 libbb/lib.a(lineedit_ptr_hack.o)
 .text          0x00000000        0x0 libbb/lib.a(llist.o)
 .data          0x00000000        0x0 libbb/lib.a(llist.o)
 .bss           0x00000000        0x0 libbb/lib.a(llist.o)
 .text.llist_unlink
                0x00000000       0x34 libbb/lib.a(llist.o)
 .text.llist_free
                0x00000000       0x38 libbb/lib.a(llist.o)
 .text.llist_rev
                0x00000000       0x28 libbb/lib.a(llist.o)
 .text.llist_find_str
                0x00000000       0x38 libbb/lib.a(llist.o)
 .note.GNU-stack
                0x00000000        0x0 libbb/lib.a(llist.o)
 .text          0x00000000        0x0 libbb/lib.a(login.o)
 .data          0x00000000        0x0 libbb/lib.a(login.o)
 .bss           0x00000000        0x0 libbb/lib.a(login.o)
 .note.GNU-stack
                0x00000000        0x0 libbb/lib.a(login.o)
 .text          0x00000000        0x0 libbb/lib.a(loop.o)
 .data          0x00000000        0x0 libbb/lib.a(loop.o)
 .bss           0x00000000        0x0 libbb/lib.a(loop.o)
 .note.GNU-stack
                0x00000000        0x0 libbb/lib.a(loop.o)
 .text          0x00000000        0x0 libbb/lib.a(make_directory.o)
 .data          0x00000000        0x0 libbb/lib.a(make_directory.o)
 .bss           0x00000000        0x0 libbb/lib.a(make_directory.o)
 .note.GNU-stack
                0x00000000        0x0 libbb/lib.a(make_directory.o)
 .text          0x00000000        0x0 libbb/lib.a(makedev.o)
 .data          0x00000000        0x0 libbb/lib.a(makedev.o)
 .bss           0x00000000        0x0 libbb/lib.a(makedev.o)
 .note.GNU-stack
                0x00000000        0x0 libbb/lib.a(makedev.o)
 .text          0x00000000        0x0 libbb/lib.a(match_fstype.o)
 .data          0x00000000        0x0 libbb/lib.a(match_fstype.o)
 .bss           0x00000000        0x0 libbb/lib.a(match_fstype.o)
 .note.GNU-stack
                0x00000000        0x0 libbb/lib.a(match_fstype.o)
 .text          0x00000000        0x0 libbb/lib.a(mode_string.o)
 .data          0x00000000        0x0 libbb/lib.a(mode_string.o)
 .bss           0x00000000        0x0 libbb/lib.a(mode_string.o)
 .note.GNU-stack
                0x00000000        0x0 libbb/lib.a(mode_string.o)
 .text          0x00000000        0x0 libbb/lib.a(parse_config.o)
 .data          0x00000000        0x0 libbb/lib.a(parse_config.o)
 .bss           0x00000000        0x0 libbb/lib.a(parse_config.o)
 .note.GNU-stack
                0x00000000        0x0 libbb/lib.a(parse_config.o)
 .text          0x00000000        0x0 libbb/lib.a(parse_mode.o)
 .data          0x00000000        0x0 libbb/lib.a(parse_mode.o)
 .bss           0x00000000        0x0 libbb/lib.a(parse_mode.o)
 .note.GNU-stack
                0x00000000        0x0 libbb/lib.a(parse_mode.o)
 .text          0x00000000        0x0 libbb/lib.a(perror_nomsg_and_die.o)
 .data          0x00000000        0x0 libbb/lib.a(perror_nomsg_and_die.o)
 .bss           0x00000000        0x0 libbb/lib.a(perror_nomsg_and_die.o)
 .note.GNU-stack
                0x00000000        0x0 libbb/lib.a(perror_nomsg_and_die.o)
 .text          0x00000000        0x0 libbb/lib.a(pidfile.o)
 .data          0x00000000        0x0 libbb/lib.a(pidfile.o)
 .bss           0x00000000        0x0 libbb/lib.a(pidfile.o)
 .note.GNU-stack
                0x00000000        0x0 libbb/lib.a(pidfile.o)
 .text          0x00000000        0x0 libbb/lib.a(printable_string.o)
 .data          0x00000000        0x0 libbb/lib.a(printable_string.o)
 .bss           0x00000000        0x0 libbb/lib.a(printable_string.o)
 .note.GNU-stack
                0x00000000        0x0 libbb/lib.a(printable_string.o)
 .text          0x00000000        0x0 libbb/lib.a(process_escape_sequence.o)
 .data          0x00000000        0x0 libbb/lib.a(process_escape_sequence.o)
 .bss           0x00000000        0x0 libbb/lib.a(process_escape_sequence.o)
 .note.GNU-stack
                0x00000000        0x0 libbb/lib.a(process_escape_sequence.o)
 .text          0x00000000        0x0 libbb/lib.a(procps.o)
 .data          0x00000000        0x0 libbb/lib.a(procps.o)
 .bss           0x00000000        0x0 libbb/lib.a(procps.o)
 .text.clear_cache
                0x00000000       0x20 libbb/lib.a(procps.o)
 .text.clear_username_cache
                0x00000000       0x20 libbb/lib.a(procps.o)
 .note.GNU-stack
                0x00000000        0x0 libbb/lib.a(procps.o)
 .text          0x00000000        0x0 libbb/lib.a(progress.o)
 .data          0x00000000        0x0 libbb/lib.a(progress.o)
 .bss           0x00000000        0x0 libbb/lib.a(progress.o)
 .note.GNU-stack
                0x00000000        0x0 libbb/lib.a(progress.o)
 .text          0x00000000        0x0 libbb/lib.a(pw_encrypt.o)
 .data          0x00000000        0x0 libbb/lib.a(pw_encrypt.o)
 .bss           0x00000000        0x0 libbb/lib.a(pw_encrypt.o)
 .note.GNU-stack
                0x00000000        0x0 libbb/lib.a(pw_encrypt.o)
 .text          0x00000000        0x0 libbb/lib.a(read_key.o)
 .data          0x00000000        0x0 libbb/lib.a(read_key.o)
 .bss           0x00000000        0x0 libbb/lib.a(read_key.o)
 .note.GNU-stack
                0x00000000        0x0 libbb/lib.a(read_key.o)
 .text          0x00000000        0x0 libbb/lib.a(read_printf.o)
 .data          0x00000000        0x0 libbb/lib.a(read_printf.o)
 .bss           0x00000000        0x0 libbb/lib.a(read_printf.o)
 .text.xmalloc_reads
                0x00000000       0xd4 libbb/lib.a(read_printf.o)
 .text.xread_char
                0x00000000       0x18 libbb/lib.a(read_printf.o)
 .text.xmalloc_xopen_read_close
                0x00000000       0x28 libbb/lib.a(read_printf.o)
 .note.GNU-stack
                0x00000000        0x0 libbb/lib.a(read_printf.o)
 .text          0x00000000        0x0 libbb/lib.a(recursive_action.o)
 .data          0x00000000        0x0 libbb/lib.a(recursive_action.o)
 .bss           0x00000000        0x0 libbb/lib.a(recursive_action.o)
 .note.GNU-stack
                0x00000000        0x0 libbb/lib.a(recursive_action.o)
 .text          0x00000000        0x0 libbb/lib.a(remove_file.o)
 .data          0x00000000        0x0 libbb/lib.a(remove_file.o)
 .bss           0x00000000        0x0 libbb/lib.a(remove_file.o)
 .note.GNU-stack
                0x00000000        0x0 libbb/lib.a(remove_file.o)
 .text          0x00000000        0x0 libbb/lib.a(run_shell.o)
 .data          0x00000000        0x0 libbb/lib.a(run_shell.o)
 .bss           0x00000000        0x0 libbb/lib.a(run_shell.o)
 .note.GNU-stack
                0x00000000        0x0 libbb/lib.a(run_shell.o)
 .text          0x00000000        0x0 libbb/lib.a(safe_gethostname.o)
 .data          0x00000000        0x0 libbb/lib.a(safe_gethostname.o)
 .bss           0x00000000        0x0 libbb/lib.a(safe_gethostname.o)
 .text.safe_getdomainname
                0x00000000       0x3c libbb/lib.a(safe_gethostname.o)
 .note.GNU-stack
                0x00000000        0x0 libbb/lib.a(safe_gethostname.o)
 .text          0x00000000        0x0 libbb/lib.a(safe_poll.o)
 .data          0x00000000        0x0 libbb/lib.a(safe_poll.o)
 .bss           0x00000000        0x0 libbb/lib.a(safe_poll.o)
 .note.GNU-stack
                0x00000000        0x0 libbb/lib.a(safe_poll.o)
 .text          0x00000000        0x0 libbb/lib.a(safe_strncpy.o)
 .data          0x00000000        0x0 libbb/lib.a(safe_strncpy.o)
 .bss           0x00000000        0x0 libbb/lib.a(safe_strncpy.o)
 .note.GNU-stack
                0x00000000        0x0 libbb/lib.a(safe_strncpy.o)
 .text          0x00000000        0x0 libbb/lib.a(setup_environment.o)
 .data          0x00000000        0x0 libbb/lib.a(setup_environment.o)
 .bss           0x00000000        0x0 libbb/lib.a(setup_environment.o)
 .note.GNU-stack
                0x00000000        0x0 libbb/lib.a(setup_environment.o)
 .text          0x00000000        0x0 libbb/lib.a(signals.o)
 .data          0x00000000        0x0 libbb/lib.a(signals.o)
 .bss           0x00000000        0x0 libbb/lib.a(signals.o)
 .text.sig_block
                0x00000000       0x34 libbb/lib.a(signals.o)
 .text.wait_for_any_sig
                0x00000000       0x1c libbb/lib.a(signals.o)
 .note.GNU-stack
                0x00000000        0x0 libbb/lib.a(signals.o)
 .text          0x00000000        0x0 libbb/lib.a(simplify_path.o)
 .data          0x00000000        0x0 libbb/lib.a(simplify_path.o)
 .bss           0x00000000        0x0 libbb/lib.a(simplify_path.o)
 .note.GNU-stack
                0x00000000        0x0 libbb/lib.a(simplify_path.o)
 .text          0x00000000        0x0 libbb/lib.a(speed_table.o)
 .data          0x00000000        0x0 libbb/lib.a(speed_table.o)
 .bss           0x00000000        0x0 libbb/lib.a(speed_table.o)
 .note.GNU-stack
                0x00000000        0x0 libbb/lib.a(speed_table.o)
 .text          0x00000000        0x0 libbb/lib.a(str_tolower.o)
 .data          0x00000000        0x0 libbb/lib.a(str_tolower.o)
 .bss           0x00000000        0x0 libbb/lib.a(str_tolower.o)
 .note.GNU-stack
                0x00000000        0x0 libbb/lib.a(str_tolower.o)
 .text          0x00000000        0x0 libbb/lib.a(strrstr.o)
 .data          0x00000000        0x0 libbb/lib.a(strrstr.o)
 .bss           0x00000000        0x0 libbb/lib.a(strrstr.o)
 .note.GNU-stack
                0x00000000        0x0 libbb/lib.a(strrstr.o)
 .text          0x00000000        0x0 libbb/lib.a(u_signal_names.o)
 .data          0x00000000        0x0 libbb/lib.a(u_signal_names.o)
 .bss           0x00000000        0x0 libbb/lib.a(u_signal_names.o)
 .note.GNU-stack
                0x00000000        0x0 libbb/lib.a(u_signal_names.o)
 .text          0x00000000        0x0 libbb/lib.a(udp_io.o)
 .data          0x00000000        0x0 libbb/lib.a(udp_io.o)
 .bss           0x00000000        0x0 libbb/lib.a(udp_io.o)
 .note.GNU-stack
                0x00000000        0x0 libbb/lib.a(udp_io.o)
 .text          0x00000000        0x0 libbb/lib.a(unicode.o)
 .data          0x00000000        0x0 libbb/lib.a(unicode.o)
 .bss           0x00000000        0x0 libbb/lib.a(unicode.o)
 .text.bb_iswspace
                0x00000000       0x2c libbb/lib.a(unicode.o)
 .text.bb_iswalnum
                0x00000000       0x3c libbb/lib.a(unicode.o)
 .text.bb_iswpunct
                0x00000000       0x34 libbb/lib.a(unicode.o)
 .text.unicode_strwidth
                0x00000000       0x1c libbb/lib.a(unicode.o)
 .text.unicode_conv_to_printable_maxwidth
                0x00000000        0x8 libbb/lib.a(unicode.o)
 .text.unicode_conv_to_printable_fixedwidth
                0x00000000        0x8 libbb/lib.a(unicode.o)
 .rodata.str1.1
                0x00000000       0x21 libbb/lib.a(unicode.o)
 .note.GNU-stack
                0x00000000        0x0 libbb/lib.a(unicode.o)
 .text          0x00000000        0x0 libbb/lib.a(update_passwd.o)
 .data          0x00000000        0x0 libbb/lib.a(update_passwd.o)
 .bss           0x00000000        0x0 libbb/lib.a(update_passwd.o)
 .note.GNU-stack
                0x00000000        0x0 libbb/lib.a(update_passwd.o)
 .text          0x00000000        0x0 libbb/lib.a(utmp.o)
 .data          0x00000000        0x0 libbb/lib.a(utmp.o)
 .bss           0x00000000        0x0 libbb/lib.a(utmp.o)
 .note.GNU-stack
                0x00000000        0x0 libbb/lib.a(utmp.o)
 .text          0x00000000        0x0 libbb/lib.a(uuencode.o)
 .data          0x00000000        0x0 libbb/lib.a(uuencode.o)
 .bss           0x00000000        0x0 libbb/lib.a(uuencode.o)
 .note.GNU-stack
                0x00000000        0x0 libbb/lib.a(uuencode.o)
 .text          0x00000000        0x0 libbb/lib.a(vfork_daemon_rexec.o)
 .data          0x00000000        0x0 libbb/lib.a(vfork_daemon_rexec.o)
 .bss           0x00000000        0x0 libbb/lib.a(vfork_daemon_rexec.o)
 .text.xspawn   0x00000000       0x20 libbb/lib.a(vfork_daemon_rexec.o)
 .note.GNU-stack
                0x00000000        0x0 libbb/lib.a(vfork_daemon_rexec.o)
 .text          0x00000000        0x0 libbb/lib.a(wfopen_input.o)
 .data          0x00000000        0x0 libbb/lib.a(wfopen_input.o)
 .bss           0x00000000        0x0 libbb/lib.a(wfopen_input.o)
 .text.xopen_stdin
                0x00000000       0x14 libbb/lib.a(wfopen_input.o)
 .note.GNU-stack
                0x00000000        0x0 libbb/lib.a(wfopen_input.o)
 .text          0x00000000        0x0 libbb/lib.a(write.o)
 .data          0x00000000        0x0 libbb/lib.a(write.o)
 .bss           0x00000000        0x0 libbb/lib.a(write.o)
 .note.GNU-stack
                0x00000000        0x0 libbb/lib.a(write.o)
 .text          0x00000000        0x0 libbb/lib.a(xatonum.o)
 .data          0x00000000        0x0 libbb/lib.a(xatonum.o)
 .bss           0x00000000        0x0 libbb/lib.a(xatonum.o)
 .text.xstrtoull_range
                0x00000000       0x24 libbb/lib.a(xatonum.o)
 .text.xstrtoull_sfx
                0x00000000       0x2c libbb/lib.a(xatonum.o)
 .text.xstrtoull
                0x00000000       0x2c libbb/lib.a(xatonum.o)
 .text.xatoull_range_sfx
                0x00000000        0x8 libbb/lib.a(xatonum.o)
 .text.xstrtoll_range_sfx
                0x00000000       0xec libbb/lib.a(xatonum.o)
 .text.xstrtoll_range
                0x00000000       0x24 libbb/lib.a(xatonum.o)
 .text.xstrtoll
                0x00000000       0x2c libbb/lib.a(xatonum.o)
 .text.xatoll_range_sfx
                0x00000000        0x8 libbb/lib.a(xatonum.o)
 .text.xatoll_range
                0x00000000       0x28 libbb/lib.a(xatonum.o)
 .text.xatoll_sfx
                0x00000000       0x2c libbb/lib.a(xatonum.o)
 .text.xatoll   0x00000000       0x30 libbb/lib.a(xatonum.o)
 .text.xstrtoul_range
                0x00000000       0x14 libbb/lib.a(xatonum.o)
 .text.xstrtoul_sfx
                0x00000000       0x18 libbb/lib.a(xatonum.o)
 .text.xstrtoul
                0x00000000       0x18 libbb/lib.a(xatonum.o)
 .text.xstrtol_range
                0x00000000       0x14 libbb/lib.a(xatonum.o)
 .text.xstrtol  0x00000000       0x1c libbb/lib.a(xatonum.o)
 .text.xatol_range_sfx
                0x00000000       0x24 libbb/lib.a(xatonum.o)
 .text.xatol_sfx
                0x00000000       0x1c libbb/lib.a(xatonum.o)
 .note.GNU-stack
                0x00000000        0x0 libbb/lib.a(xatonum.o)
 .text          0x00000000        0x0 libbb/lib.a(xconnect.o)
 .data          0x00000000        0x0 libbb/lib.a(xconnect.o)
 .bss           0x00000000        0x0 libbb/lib.a(xconnect.o)
 .text.get_peer_lsa
                0x00000000        0xc libbb/lib.a(xconnect.o)
 .text.get_nport
                0x00000000       0x14 libbb/lib.a(xconnect.o)
 .text.xsocket_stream
                0x00000000        0x8 libbb/lib.a(xconnect.o)
 .text.create_and_bind_stream_or_die
                0x00000000        0x8 libbb/lib.a(xconnect.o)
 .text.create_and_connect_stream_or_die
                0x00000000       0x48 libbb/lib.a(xconnect.o)
 .text.xmalloc_sockaddr2host
                0x00000000        0x8 libbb/lib.a(xconnect.o)
 .text.xmalloc_sockaddr2host_noport
                0x00000000        0x8 libbb/lib.a(xconnect.o)
 .text.xmalloc_sockaddr2hostonly_noport
                0x00000000        0x8 libbb/lib.a(xconnect.o)
 .note.GNU-stack
                0x00000000        0x0 libbb/lib.a(xconnect.o)
 .text          0x00000000        0x0 libbb/lib.a(xgetcwd.o)
 .data          0x00000000        0x0 libbb/lib.a(xgetcwd.o)
 .bss           0x00000000        0x0 libbb/lib.a(xgetcwd.o)
 .note.GNU-stack
                0x00000000        0x0 libbb/lib.a(xgetcwd.o)
 .text          0x00000000        0x0 libbb/lib.a(xgethostbyname.o)
 .data          0x00000000        0x0 libbb/lib.a(xgethostbyname.o)
 .bss           0x00000000        0x0 libbb/lib.a(xgethostbyname.o)
 .note.GNU-stack
                0x00000000        0x0 libbb/lib.a(xgethostbyname.o)
 .text          0x00000000        0x0 libbb/lib.a(xrealloc_vector.o)
 .data          0x00000000        0x0 libbb/lib.a(xrealloc_vector.o)
 .bss           0x00000000        0x0 libbb/lib.a(xrealloc_vector.o)
 .note.GNU-stack
                0x00000000        0x0 libbb/lib.a(xrealloc_vector.o)
 .text          0x00000000        0x0 libbb/lib.a(xregcomp.o)
 .data          0x00000000        0x0 libbb/lib.a(xregcomp.o)
 .bss           0x00000000        0x0 libbb/lib.a(xregcomp.o)
 .note.GNU-stack
                0x00000000        0x0 libbb/lib.a(xregcomp.o)
 .text          0x00000000        0x0 libbb/lib.a(concat_subpath_file.o)
 .data          0x00000000        0x0 libbb/lib.a(concat_subpath_file.o)
 .bss           0x00000000        0x0 libbb/lib.a(concat_subpath_file.o)
 .note.GNU-stack
                0x00000000        0x0 libbb/lib.a(concat_subpath_file.o)
 .text          0x00000000        0x0 libbb/lib.a(hash_md5_sha.o)
 .data          0x00000000        0x0 libbb/lib.a(hash_md5_sha.o)
 .bss           0x00000000        0x0 libbb/lib.a(hash_md5_sha.o)
 .text.sha1_begin
                0x00000000       0x58 libbb/lib.a(hash_md5_sha.o)
 .note.GNU-stack
                0x00000000        0x0 libbb/lib.a(hash_md5_sha.o)
 .text          0x00000000        0x0 libbb/lib.a(perror_nomsg.o)
 .data          0x00000000        0x0 libbb/lib.a(perror_nomsg.o)
 .bss           0x00000000        0x0 libbb/lib.a(perror_nomsg.o)
 .note.GNU-stack
                0x00000000        0x0 libbb/lib.a(perror_nomsg.o)
 .text          0x00000000        0x0 libbb/lib.a(bb_bswap_64.o)
 .data          0x00000000        0x0 libbb/lib.a(bb_bswap_64.o)
 .bss           0x00000000        0x0 libbb/lib.a(bb_bswap_64.o)
 .note.GNU-stack
                0x00000000        0x0 libbb/lib.a(bb_bswap_64.o)
 .text          0x00000000        0x0 libpwdgrp/lib.a(uidgid_get.o)
 .data          0x00000000        0x0 libpwdgrp/lib.a(uidgid_get.o)
 .bss           0x00000000        0x0 libpwdgrp/lib.a(uidgid_get.o)
 .note.GNU-stack
                0x00000000        0x0 libpwdgrp/lib.a(uidgid_get.o)
 .data          0x00000000        0x0 /home/media/data/hudson_build/32bitProduct_SN98600_1.20_P2P_QIWO/ST58600_SRC/toolchain/crosstool-4.5.2/bin/../lib/gcc/arm-unknown-linux-uclibcgnueabi/4.5.2/libgcc.a(_udivsi3.o)
 .bss           0x00000000        0x0 /home/media/data/hudson_build/32bitProduct_SN98600_1.20_P2P_QIWO/ST58600_SRC/toolchain/crosstool-4.5.2/bin/../lib/gcc/arm-unknown-linux-uclibcgnueabi/4.5.2/libgcc.a(_udivsi3.o)
 .note.GNU-stack
                0x00000000        0x0 /home/media/data/hudson_build/32bitProduct_SN98600_1.20_P2P_QIWO/ST58600_SRC/toolchain/crosstool-4.5.2/bin/../lib/gcc/arm-unknown-linux-uclibcgnueabi/4.5.2/libgcc.a(_udivsi3.o)
 .data          0x00000000        0x0 /home/media/data/hudson_build/32bitProduct_SN98600_1.20_P2P_QIWO/ST58600_SRC/toolchain/crosstool-4.5.2/bin/../lib/gcc/arm-unknown-linux-uclibcgnueabi/4.5.2/libgcc.a(_divsi3.o)
 .bss           0x00000000        0x0 /home/media/data/hudson_build/32bitProduct_SN98600_1.20_P2P_QIWO/ST58600_SRC/toolchain/crosstool-4.5.2/bin/../lib/gcc/arm-unknown-linux-uclibcgnueabi/4.5.2/libgcc.a(_divsi3.o)
 .note.GNU-stack
                0x00000000        0x0 /home/media/data/hudson_build/32bitProduct_SN98600_1.20_P2P_QIWO/ST58600_SRC/toolchain/crosstool-4.5.2/bin/../lib/gcc/arm-unknown-linux-uclibcgnueabi/4.5.2/libgcc.a(_divsi3.o)
 .data          0x00000000        0x0 /home/media/data/hudson_build/32bitProduct_SN98600_1.20_P2P_QIWO/ST58600_SRC/toolchain/crosstool-4.5.2/bin/../lib/gcc/arm-unknown-linux-uclibcgnueabi/4.5.2/libgcc.a(_lshrdi3.o)
 .bss           0x00000000        0x0 /home/media/data/hudson_build/32bitProduct_SN98600_1.20_P2P_QIWO/ST58600_SRC/toolchain/crosstool-4.5.2/bin/../lib/gcc/arm-unknown-linux-uclibcgnueabi/4.5.2/libgcc.a(_lshrdi3.o)
 .note.GNU-stack
                0x00000000        0x0 /home/media/data/hudson_build/32bitProduct_SN98600_1.20_P2P_QIWO/ST58600_SRC/toolchain/crosstool-4.5.2/bin/../lib/gcc/arm-unknown-linux-uclibcgnueabi/4.5.2/libgcc.a(_lshrdi3.o)
 .data          0x00000000        0x0 /home/media/data/hudson_build/32bitProduct_SN98600_1.20_P2P_QIWO/ST58600_SRC/toolchain/crosstool-4.5.2/bin/../lib/gcc/arm-unknown-linux-uclibcgnueabi/4.5.2/libgcc.a(_ashrdi3.o)
 .bss           0x00000000        0x0 /home/media/data/hudson_build/32bitProduct_SN98600_1.20_P2P_QIWO/ST58600_SRC/toolchain/crosstool-4.5.2/bin/../lib/gcc/arm-unknown-linux-uclibcgnueabi/4.5.2/libgcc.a(_ashrdi3.o)
 .note.GNU-stack
                0x00000000        0x0 /home/media/data/hudson_build/32bitProduct_SN98600_1.20_P2P_QIWO/ST58600_SRC/toolchain/crosstool-4.5.2/bin/../lib/gcc/arm-unknown-linux-uclibcgnueabi/4.5.2/libgcc.a(_ashrdi3.o)
 .data          0x00000000        0x0 /home/media/data/hudson_build/32bitProduct_SN98600_1.20_P2P_QIWO/ST58600_SRC/toolchain/crosstool-4.5.2/bin/../lib/gcc/arm-unknown-linux-uclibcgnueabi/4.5.2/libgcc.a(_ashldi3.o)
 .bss           0x00000000        0x0 /home/media/data/hudson_build/32bitProduct_SN98600_1.20_P2P_QIWO/ST58600_SRC/toolchain/crosstool-4.5.2/bin/../lib/gcc/arm-unknown-linux-uclibcgnueabi/4.5.2/libgcc.a(_ashldi3.o)
 .note.GNU-stack
                0x00000000        0x0 /home/media/data/hudson_build/32bitProduct_SN98600_1.20_P2P_QIWO/ST58600_SRC/toolchain/crosstool-4.5.2/bin/../lib/gcc/arm-unknown-linux-uclibcgnueabi/4.5.2/libgcc.a(_ashldi3.o)
 .data          0x00000000        0x0 /home/media/data/hudson_build/32bitProduct_SN98600_1.20_P2P_QIWO/ST58600_SRC/toolchain/crosstool-4.5.2/bin/../lib/gcc/arm-unknown-linux-uclibcgnueabi/4.5.2/libgcc.a(_arm_addsubdf3.o)
 .bss           0x00000000        0x0 /home/media/data/hudson_build/32bitProduct_SN98600_1.20_P2P_QIWO/ST58600_SRC/toolchain/crosstool-4.5.2/bin/../lib/gcc/arm-unknown-linux-uclibcgnueabi/4.5.2/libgcc.a(_arm_addsubdf3.o)
 .note.GNU-stack
                0x00000000        0x0 /home/media/data/hudson_build/32bitProduct_SN98600_1.20_P2P_QIWO/ST58600_SRC/toolchain/crosstool-4.5.2/bin/../lib/gcc/arm-unknown-linux-uclibcgnueabi/4.5.2/libgcc.a(_arm_addsubdf3.o)
 .data          0x00000000        0x0 /home/media/data/hudson_build/32bitProduct_SN98600_1.20_P2P_QIWO/ST58600_SRC/toolchain/crosstool-4.5.2/bin/../lib/gcc/arm-unknown-linux-uclibcgnueabi/4.5.2/libgcc.a(_arm_muldivdf3.o)
 .bss           0x00000000        0x0 /home/media/data/hudson_build/32bitProduct_SN98600_1.20_P2P_QIWO/ST58600_SRC/toolchain/crosstool-4.5.2/bin/../lib/gcc/arm-unknown-linux-uclibcgnueabi/4.5.2/libgcc.a(_arm_muldivdf3.o)
 .note.GNU-stack
                0x00000000        0x0 /home/media/data/hudson_build/32bitProduct_SN98600_1.20_P2P_QIWO/ST58600_SRC/toolchain/crosstool-4.5.2/bin/../lib/gcc/arm-unknown-linux-uclibcgnueabi/4.5.2/libgcc.a(_arm_muldivdf3.o)
 .data          0x00000000        0x0 /home/media/data/hudson_build/32bitProduct_SN98600_1.20_P2P_QIWO/ST58600_SRC/toolchain/crosstool-4.5.2/bin/../lib/gcc/arm-unknown-linux-uclibcgnueabi/4.5.2/libgcc.a(_arm_cmpdf2.o)
 .bss           0x00000000        0x0 /home/media/data/hudson_build/32bitProduct_SN98600_1.20_P2P_QIWO/ST58600_SRC/toolchain/crosstool-4.5.2/bin/../lib/gcc/arm-unknown-linux-uclibcgnueabi/4.5.2/libgcc.a(_arm_cmpdf2.o)
 .note.GNU-stack
                0x00000000        0x0 /home/media/data/hudson_build/32bitProduct_SN98600_1.20_P2P_QIWO/ST58600_SRC/toolchain/crosstool-4.5.2/bin/../lib/gcc/arm-unknown-linux-uclibcgnueabi/4.5.2/libgcc.a(_arm_cmpdf2.o)
 .data          0x00000000        0x0 /home/media/data/hudson_build/32bitProduct_SN98600_1.20_P2P_QIWO/ST58600_SRC/toolchain/crosstool-4.5.2/bin/../lib/gcc/arm-unknown-linux-uclibcgnueabi/4.5.2/libgcc.a(_arm_fixdfsi.o)
 .bss           0x00000000        0x0 /home/media/data/hudson_build/32bitProduct_SN98600_1.20_P2P_QIWO/ST58600_SRC/toolchain/crosstool-4.5.2/bin/../lib/gcc/arm-unknown-linux-uclibcgnueabi/4.5.2/libgcc.a(_arm_fixdfsi.o)
 .note.GNU-stack
                0x00000000        0x0 /home/media/data/hudson_build/32bitProduct_SN98600_1.20_P2P_QIWO/ST58600_SRC/toolchain/crosstool-4.5.2/bin/../lib/gcc/arm-unknown-linux-uclibcgnueabi/4.5.2/libgcc.a(_arm_fixdfsi.o)
 .data          0x00000000        0x0 /home/media/data/hudson_build/32bitProduct_SN98600_1.20_P2P_QIWO/ST58600_SRC/toolchain/crosstool-4.5.2/bin/../lib/gcc/arm-unknown-linux-uclibcgnueabi/4.5.2/libgcc.a(_arm_fixunsdfsi.o)
 .bss           0x00000000        0x0 /home/media/data/hudson_build/32bitProduct_SN98600_1.20_P2P_QIWO/ST58600_SRC/toolchain/crosstool-4.5.2/bin/../lib/gcc/arm-unknown-linux-uclibcgnueabi/4.5.2/libgcc.a(_arm_fixunsdfsi.o)
 .note.GNU-stack
                0x00000000        0x0 /home/media/data/hudson_build/32bitProduct_SN98600_1.20_P2P_QIWO/ST58600_SRC/toolchain/crosstool-4.5.2/bin/../lib/gcc/arm-unknown-linux-uclibcgnueabi/4.5.2/libgcc.a(_arm_fixunsdfsi.o)
 .data          0x00000000        0x0 /home/media/data/hudson_build/32bitProduct_SN98600_1.20_P2P_QIWO/ST58600_SRC/toolchain/crosstool-4.5.2/bin/../lib/gcc/arm-unknown-linux-uclibcgnueabi/4.5.2/libgcc.a(_arm_truncdfsf2.o)
 .bss           0x00000000        0x0 /home/media/data/hudson_build/32bitProduct_SN98600_1.20_P2P_QIWO/ST58600_SRC/toolchain/crosstool-4.5.2/bin/../lib/gcc/arm-unknown-linux-uclibcgnueabi/4.5.2/libgcc.a(_arm_truncdfsf2.o)
 .note.GNU-stack
                0x00000000        0x0 /home/media/data/hudson_build/32bitProduct_SN98600_1.20_P2P_QIWO/ST58600_SRC/toolchain/crosstool-4.5.2/bin/../lib/gcc/arm-unknown-linux-uclibcgnueabi/4.5.2/libgcc.a(_arm_truncdfsf2.o)
 .data          0x00000000        0x0 /home/media/data/hudson_build/32bitProduct_SN98600_1.20_P2P_QIWO/ST58600_SRC/toolchain/crosstool-4.5.2/bin/../lib/gcc/arm-unknown-linux-uclibcgnueabi/4.5.2/libgcc.a(_aeabi_ulcmp.o)
 .bss           0x00000000        0x0 /home/media/data/hudson_build/32bitProduct_SN98600_1.20_P2P_QIWO/ST58600_SRC/toolchain/crosstool-4.5.2/bin/../lib/gcc/arm-unknown-linux-uclibcgnueabi/4.5.2/libgcc.a(_aeabi_ulcmp.o)
 .note.GNU-stack
                0x00000000        0x0 /home/media/data/hudson_build/32bitProduct_SN98600_1.20_P2P_QIWO/ST58600_SRC/toolchain/crosstool-4.5.2/bin/../lib/gcc/arm-unknown-linux-uclibcgnueabi/4.5.2/libgcc.a(_aeabi_ulcmp.o)
 .data          0x00000000        0x0 /home/media/data/hudson_build/32bitProduct_SN98600_1.20_P2P_QIWO/ST58600_SRC/toolchain/crosstool-4.5.2/bin/../lib/gcc/arm-unknown-linux-uclibcgnueabi/4.5.2/libgcc.a(_aeabi_ldivmod.o)
 .bss           0x00000000        0x0 /home/media/data/hudson_build/32bitProduct_SN98600_1.20_P2P_QIWO/ST58600_SRC/toolchain/crosstool-4.5.2/bin/../lib/gcc/arm-unknown-linux-uclibcgnueabi/4.5.2/libgcc.a(_aeabi_ldivmod.o)
 .note.GNU-stack
                0x00000000        0x0 /home/media/data/hudson_build/32bitProduct_SN98600_1.20_P2P_QIWO/ST58600_SRC/toolchain/crosstool-4.5.2/bin/../lib/gcc/arm-unknown-linux-uclibcgnueabi/4.5.2/libgcc.a(_aeabi_ldivmod.o)
 .data          0x00000000        0x0 /home/media/data/hudson_build/32bitProduct_SN98600_1.20_P2P_QIWO/ST58600_SRC/toolchain/crosstool-4.5.2/bin/../lib/gcc/arm-unknown-linux-uclibcgnueabi/4.5.2/libgcc.a(_aeabi_uldivmod.o)
 .bss           0x00000000        0x0 /home/media/data/hudson_build/32bitProduct_SN98600_1.20_P2P_QIWO/ST58600_SRC/toolchain/crosstool-4.5.2/bin/../lib/gcc/arm-unknown-linux-uclibcgnueabi/4.5.2/libgcc.a(_aeabi_uldivmod.o)
 .note.GNU-stack
                0x00000000        0x0 /home/media/data/hudson_build/32bitProduct_SN98600_1.20_P2P_QIWO/ST58600_SRC/toolchain/crosstool-4.5.2/bin/../lib/gcc/arm-unknown-linux-uclibcgnueabi/4.5.2/libgcc.a(_aeabi_uldivmod.o)
 .data          0x00000000        0x0 /home/media/data/hudson_build/32bitProduct_SN98600_1.20_P2P_QIWO/ST58600_SRC/toolchain/crosstool-4.5.2/bin/../lib/gcc/arm-unknown-linux-uclibcgnueabi/4.5.2/libgcc.a(_dvmd_lnx.o)
 .bss           0x00000000        0x0 /home/media/data/hudson_build/32bitProduct_SN98600_1.20_P2P_QIWO/ST58600_SRC/toolchain/crosstool-4.5.2/bin/../lib/gcc/arm-unknown-linux-uclibcgnueabi/4.5.2/libgcc.a(_dvmd_lnx.o)
 .note.GNU-stack
                0x00000000        0x0 /home/media/data/hudson_build/32bitProduct_SN98600_1.20_P2P_QIWO/ST58600_SRC/toolchain/crosstool-4.5.2/bin/../lib/gcc/arm-unknown-linux-uclibcgnueabi/4.5.2/libgcc.a(_dvmd_lnx.o)
 .data          0x00000000        0x0 /home/media/data/hudson_build/32bitProduct_SN98600_1.20_P2P_QIWO/ST58600_SRC/toolchain/crosstool-4.5.2/bin/../lib/gcc/arm-unknown-linux-uclibcgnueabi/4.5.2/libgcc.a(_fixunsdfdi.o)
 .bss           0x00000000        0x0 /home/media/data/hudson_build/32bitProduct_SN98600_1.20_P2P_QIWO/ST58600_SRC/toolchain/crosstool-4.5.2/bin/../lib/gcc/arm-unknown-linux-uclibcgnueabi/4.5.2/libgcc.a(_fixunsdfdi.o)
 .note.GNU-stack
                0x00000000        0x0 /home/media/data/hudson_build/32bitProduct_SN98600_1.20_P2P_QIWO/ST58600_SRC/toolchain/crosstool-4.5.2/bin/../lib/gcc/arm-unknown-linux-uclibcgnueabi/4.5.2/libgcc.a(_fixunsdfdi.o)
 .data          0x00000000        0x0 /home/media/data/hudson_build/32bitProduct_SN98600_1.20_P2P_QIWO/ST58600_SRC/toolchain/crosstool-4.5.2/bin/../lib/gcc/arm-unknown-linux-uclibcgnueabi/4.5.2/libgcc.a(bpabi.o)
 .bss           0x00000000        0x0 /home/media/data/hudson_build/32bitProduct_SN98600_1.20_P2P_QIWO/ST58600_SRC/toolchain/crosstool-4.5.2/bin/../lib/gcc/arm-unknown-linux-uclibcgnueabi/4.5.2/libgcc.a(bpabi.o)
 .ARM.extab     0x00000000        0x0 /home/media/data/hudson_build/32bitProduct_SN98600_1.20_P2P_QIWO/ST58600_SRC/toolchain/crosstool-4.5.2/bin/../lib/gcc/arm-unknown-linux-uclibcgnueabi/4.5.2/libgcc.a(bpabi.o)
 .note.GNU-stack
                0x00000000        0x0 /home/media/data/hudson_build/32bitProduct_SN98600_1.20_P2P_QIWO/ST58600_SRC/toolchain/crosstool-4.5.2/bin/../lib/gcc/arm-unknown-linux-uclibcgnueabi/4.5.2/libgcc.a(bpabi.o)
 .data          0x00000000        0x0 /home/media/data/hudson_build/32bitProduct_SN98600_1.20_P2P_QIWO/ST58600_SRC/toolchain/crosstool-4.5.2/bin/../lib/gcc/arm-unknown-linux-uclibcgnueabi/4.5.2/libgcc.a(_divdi3.o)
 .bss           0x00000000        0x0 /home/media/data/hudson_build/32bitProduct_SN98600_1.20_P2P_QIWO/ST58600_SRC/toolchain/crosstool-4.5.2/bin/../lib/gcc/arm-unknown-linux-uclibcgnueabi/4.5.2/libgcc.a(_divdi3.o)
 .ARM.extab     0x00000000        0x0 /home/media/data/hudson_build/32bitProduct_SN98600_1.20_P2P_QIWO/ST58600_SRC/toolchain/crosstool-4.5.2/bin/../lib/gcc/arm-unknown-linux-uclibcgnueabi/4.5.2/libgcc.a(_divdi3.o)
 .note.GNU-stack
                0x00000000        0x0 /home/media/data/hudson_build/32bitProduct_SN98600_1.20_P2P_QIWO/ST58600_SRC/toolchain/crosstool-4.5.2/bin/../lib/gcc/arm-unknown-linux-uclibcgnueabi/4.5.2/libgcc.a(_divdi3.o)
 .data          0x00000000        0x0 /home/media/data/hudson_build/32bitProduct_SN98600_1.20_P2P_QIWO/ST58600_SRC/toolchain/crosstool-4.5.2/bin/../lib/gcc/arm-unknown-linux-uclibcgnueabi/4.5.2/libgcc.a(_udivdi3.o)
 .bss           0x00000000        0x0 /home/media/data/hudson_build/32bitProduct_SN98600_1.20_P2P_QIWO/ST58600_SRC/toolchain/crosstool-4.5.2/bin/../lib/gcc/arm-unknown-linux-uclibcgnueabi/4.5.2/libgcc.a(_udivdi3.o)
 .ARM.extab     0x00000000        0x0 /home/media/data/hudson_build/32bitProduct_SN98600_1.20_P2P_QIWO/ST58600_SRC/toolchain/crosstool-4.5.2/bin/../lib/gcc/arm-unknown-linux-uclibcgnueabi/4.5.2/libgcc.a(_udivdi3.o)
 .note.GNU-stack
                0x00000000        0x0 /home/media/data/hudson_build/32bitProduct_SN98600_1.20_P2P_QIWO/ST58600_SRC/toolchain/crosstool-4.5.2/bin/../lib/gcc/arm-unknown-linux-uclibcgnueabi/4.5.2/libgcc.a(_udivdi3.o)
 .data          0x00000000        0x0 /home/media/data/hudson_build/32bitProduct_SN98600_1.20_P2P_QIWO/ST58600_SRC/toolchain/crosstool-4.5.2/bin/../lib/gcc/arm-unknown-linux-uclibcgnueabi/4.5.2/libgcc_eh.a(unwind-arm.o)
 .bss           0x00000000        0x0 /home/media/data/hudson_build/32bitProduct_SN98600_1.20_P2P_QIWO/ST58600_SRC/toolchain/crosstool-4.5.2/bin/../lib/gcc/arm-unknown-linux-uclibcgnueabi/4.5.2/libgcc_eh.a(unwind-arm.o)
 .debug_abbrev  0x00000000      0x37e /home/media/data/hudson_build/32bitProduct_SN98600_1.20_P2P_QIWO/ST58600_SRC/toolchain/crosstool-4.5.2/bin/../lib/gcc/arm-unknown-linux-uclibcgnueabi/4.5.2/libgcc_eh.a(unwind-arm.o)
 .debug_info    0x00000000     0x12b1 /home/media/data/hudson_build/32bitProduct_SN98600_1.20_P2P_QIWO/ST58600_SRC/toolchain/crosstool-4.5.2/bin/../lib/gcc/arm-unknown-linux-uclibcgnueabi/4.5.2/libgcc_eh.a(unwind-arm.o)
 .debug_line    0x00000000      0x492 /home/media/data/hudson_build/32bitProduct_SN98600_1.20_P2P_QIWO/ST58600_SRC/toolchain/crosstool-4.5.2/bin/../lib/gcc/arm-unknown-linux-uclibcgnueabi/4.5.2/libgcc_eh.a(unwind-arm.o)
 .debug_loc     0x00000000     0x109f /home/media/data/hudson_build/32bitProduct_SN98600_1.20_P2P_QIWO/ST58600_SRC/toolchain/crosstool-4.5.2/bin/../lib/gcc/arm-unknown-linux-uclibcgnueabi/4.5.2/libgcc_eh.a(unwind-arm.o)
 .debug_pubnames
                0x00000000      0x177 /home/media/data/hudson_build/32bitProduct_SN98600_1.20_P2P_QIWO/ST58600_SRC/toolchain/crosstool-4.5.2/bin/../lib/gcc/arm-unknown-linux-uclibcgnueabi/4.5.2/libgcc_eh.a(unwind-arm.o)
 .debug_pubtypes
                0x00000000      0x269 /home/media/data/hudson_build/32bitProduct_SN98600_1.20_P2P_QIWO/ST58600_SRC/toolchain/crosstool-4.5.2/bin/../lib/gcc/arm-unknown-linux-uclibcgnueabi/4.5.2/libgcc_eh.a(unwind-arm.o)
 .debug_aranges
                0x00000000       0x20 /home/media/data/hudson_build/32bitProduct_SN98600_1.20_P2P_QIWO/ST58600_SRC/toolchain/crosstool-4.5.2/bin/../lib/gcc/arm-unknown-linux-uclibcgnueabi/4.5.2/libgcc_eh.a(unwind-arm.o)
 .debug_ranges  0x00000000       0xf0 /home/media/data/hudson_build/32bitProduct_SN98600_1.20_P2P_QIWO/ST58600_SRC/toolchain/crosstool-4.5.2/bin/../lib/gcc/arm-unknown-linux-uclibcgnueabi/4.5.2/libgcc_eh.a(unwind-arm.o)
 .debug_str     0x00000000      0x92b /home/media/data/hudson_build/32bitProduct_SN98600_1.20_P2P_QIWO/ST58600_SRC/toolchain/crosstool-4.5.2/bin/../lib/gcc/arm-unknown-linux-uclibcgnueabi/4.5.2/libgcc_eh.a(unwind-arm.o)
 .comment       0x00000000       0x31 /home/media/data/hudson_build/32bitProduct_SN98600_1.20_P2P_QIWO/ST58600_SRC/toolchain/crosstool-4.5.2/bin/../lib/gcc/arm-unknown-linux-uclibcgnueabi/4.5.2/libgcc_eh.a(unwind-arm.o)
 .note.GNU-stack
                0x00000000        0x0 /home/media/data/hudson_build/32bitProduct_SN98600_1.20_P2P_QIWO/ST58600_SRC/toolchain/crosstool-4.5.2/bin/../lib/gcc/arm-unknown-linux-uclibcgnueabi/4.5.2/libgcc_eh.a(unwind-arm.o)
 .ARM.attributes
                0x00000000       0x2d /home/media/data/hudson_build/32bitProduct_SN98600_1.20_P2P_QIWO/ST58600_SRC/toolchain/crosstool-4.5.2/bin/../lib/gcc/arm-unknown-linux-uclibcgnueabi/4.5.2/libgcc_eh.a(unwind-arm.o)
 .debug_frame   0x00000000      0x250 /home/media/data/hudson_build/32bitProduct_SN98600_1.20_P2P_QIWO/ST58600_SRC/toolchain/crosstool-4.5.2/bin/../lib/gcc/arm-unknown-linux-uclibcgnueabi/4.5.2/libgcc_eh.a(unwind-arm.o)
 .data          0x00000000        0x0 /home/media/data/hudson_build/32bitProduct_SN98600_1.20_P2P_QIWO/ST58600_SRC/toolchain/crosstool-4.5.2/bin/../lib/gcc/arm-unknown-linux-uclibcgnueabi/4.5.2/libgcc_eh.a(libunwind.o)
 .bss           0x00000000        0x0 /home/media/data/hudson_build/32bitProduct_SN98600_1.20_P2P_QIWO/ST58600_SRC/toolchain/crosstool-4.5.2/bin/../lib/gcc/arm-unknown-linux-uclibcgnueabi/4.5.2/libgcc_eh.a(libunwind.o)
 .note.GNU-stack
                0x00000000        0x0 /home/media/data/hudson_build/32bitProduct_SN98600_1.20_P2P_QIWO/ST58600_SRC/toolchain/crosstool-4.5.2/bin/../lib/gcc/arm-unknown-linux-uclibcgnueabi/4.5.2/libgcc_eh.a(libunwind.o)
 .ARM.attributes
                0x00000000       0x1f /home/media/data/hudson_build/32bitProduct_SN98600_1.20_P2P_QIWO/ST58600_SRC/toolchain/crosstool-4.5.2/bin/../lib/gcc/arm-unknown-linux-uclibcgnueabi/4.5.2/libgcc_eh.a(libunwind.o)
 .debug_line    0x00000000       0xf9 /home/media/data/hudson_build/32bitProduct_SN98600_1.20_P2P_QIWO/ST58600_SRC/toolchain/crosstool-4.5.2/bin/../lib/gcc/arm-unknown-linux-uclibcgnueabi/4.5.2/libgcc_eh.a(libunwind.o)
 .debug_info    0x00000000      0x124 /home/media/data/hudson_build/32bitProduct_SN98600_1.20_P2P_QIWO/ST58600_SRC/toolchain/crosstool-4.5.2/bin/../lib/gcc/arm-unknown-linux-uclibcgnueabi/4.5.2/libgcc_eh.a(libunwind.o)
 .debug_abbrev  0x00000000       0x14 /home/media/data/hudson_build/32bitProduct_SN98600_1.20_P2P_QIWO/ST58600_SRC/toolchain/crosstool-4.5.2/bin/../lib/gcc/arm-unknown-linux-uclibcgnueabi/4.5.2/libgcc_eh.a(libunwind.o)
 .debug_aranges
                0x00000000       0x20 /home/media/data/hudson_build/32bitProduct_SN98600_1.20_P2P_QIWO/ST58600_SRC/toolchain/crosstool-4.5.2/bin/../lib/gcc/arm-unknown-linux-uclibcgnueabi/4.5.2/libgcc_eh.a(libunwind.o)
 .data          0x00000000        0x0 /home/media/data/hudson_build/32bitProduct_SN98600_1.20_P2P_QIWO/ST58600_SRC/toolchain/crosstool-4.5.2/bin/../lib/gcc/arm-unknown-linux-uclibcgnueabi/4.5.2/libgcc_eh.a(pr-support.o)
 .bss           0x00000000        0x0 /home/media/data/hudson_build/32bitProduct_SN98600_1.20_P2P_QIWO/ST58600_SRC/toolchain/crosstool-4.5.2/bin/../lib/gcc/arm-unknown-linux-uclibcgnueabi/4.5.2/libgcc_eh.a(pr-support.o)
 .debug_abbrev  0x00000000      0x228 /home/media/data/hudson_build/32bitProduct_SN98600_1.20_P2P_QIWO/ST58600_SRC/toolchain/crosstool-4.5.2/bin/../lib/gcc/arm-unknown-linux-uclibcgnueabi/4.5.2/libgcc_eh.a(pr-support.o)
 .debug_info    0x00000000      0x5ef /home/media/data/hudson_build/32bitProduct_SN98600_1.20_P2P_QIWO/ST58600_SRC/toolchain/crosstool-4.5.2/bin/../lib/gcc/arm-unknown-linux-uclibcgnueabi/4.5.2/libgcc_eh.a(pr-support.o)
 .debug_line    0x00000000      0x1f4 /home/media/data/hudson_build/32bitProduct_SN98600_1.20_P2P_QIWO/ST58600_SRC/toolchain/crosstool-4.5.2/bin/../lib/gcc/arm-unknown-linux-uclibcgnueabi/4.5.2/libgcc_eh.a(pr-support.o)
 .debug_loc     0x00000000      0x500 /home/media/data/hudson_build/32bitProduct_SN98600_1.20_P2P_QIWO/ST58600_SRC/toolchain/crosstool-4.5.2/bin/../lib/gcc/arm-unknown-linux-uclibcgnueabi/4.5.2/libgcc_eh.a(pr-support.o)
 .debug_pubnames
                0x00000000       0xb7 /home/media/data/hudson_build/32bitProduct_SN98600_1.20_P2P_QIWO/ST58600_SRC/toolchain/crosstool-4.5.2/bin/../lib/gcc/arm-unknown-linux-uclibcgnueabi/4.5.2/libgcc_eh.a(pr-support.o)
 .debug_pubtypes
                0x00000000       0xd2 /home/media/data/hudson_build/32bitProduct_SN98600_1.20_P2P_QIWO/ST58600_SRC/toolchain/crosstool-4.5.2/bin/../lib/gcc/arm-unknown-linux-uclibcgnueabi/4.5.2/libgcc_eh.a(pr-support.o)
 .debug_aranges
                0x00000000       0x20 /home/media/data/hudson_build/32bitProduct_SN98600_1.20_P2P_QIWO/ST58600_SRC/toolchain/crosstool-4.5.2/bin/../lib/gcc/arm-unknown-linux-uclibcgnueabi/4.5.2/libgcc_eh.a(pr-support.o)
 .debug_ranges  0x00000000       0x30 /home/media/data/hudson_build/32bitProduct_SN98600_1.20_P2P_QIWO/ST58600_SRC/toolchain/crosstool-4.5.2/bin/../lib/gcc/arm-unknown-linux-uclibcgnueabi/4.5.2/libgcc_eh.a(pr-support.o)
 .debug_str     0x00000000      0x462 /home/media/data/hudson_build/32bitProduct_SN98600_1.20_P2P_QIWO/ST58600_SRC/toolchain/crosstool-4.5.2/bin/../lib/gcc/arm-unknown-linux-uclibcgnueabi/4.5.2/libgcc_eh.a(pr-support.o)
 .comment       0x00000000       0x31 /home/media/data/hudson_build/32bitProduct_SN98600_1.20_P2P_QIWO/ST58600_SRC/toolchain/crosstool-4.5.2/bin/../lib/gcc/arm-unknown-linux-uclibcgnueabi/4.5.2/libgcc_eh.a(pr-support.o)
 .note.GNU-stack
                0x00000000        0x0 /home/media/data/hudson_build/32bitProduct_SN98600_1.20_P2P_QIWO/ST58600_SRC/toolchain/crosstool-4.5.2/bin/../lib/gcc/arm-unknown-linux-uclibcgnueabi/4.5.2/libgcc_eh.a(pr-support.o)
 .ARM.attributes
                0x00000000       0x2d /home/media/data/hudson_build/32bitProduct_SN98600_1.20_P2P_QIWO/ST58600_SRC/toolchain/crosstool-4.5.2/bin/../lib/gcc/arm-unknown-linux-uclibcgnueabi/4.5.2/libgcc_eh.a(pr-support.o)
 .debug_frame   0x00000000       0xec /home/media/data/hudson_build/32bitProduct_SN98600_1.20_P2P_QIWO/ST58600_SRC/toolchain/crosstool-4.5.2/bin/../lib/gcc/arm-unknown-linux-uclibcgnueabi/4.5.2/libgcc_eh.a(pr-support.o)
 .data          0x00000000        0x0 /home/media/data/hudson_build/32bitProduct_SN98600_1.20_P2P_QIWO/ST58600_SRC/toolchain/crosstool-4.5.2/bin/../arm-unknown-linux-uclibcgnueabi/sysroot/usr/lib/uclibc_nonshared.a(atexit.os)
 .bss           0x00000000        0x0 /home/media/data/hudson_build/32bitProduct_SN98600_1.20_P2P_QIWO/ST58600_SRC/toolchain/crosstool-4.5.2/bin/../arm-unknown-linux-uclibcgnueabi/sysroot/usr/lib/uclibc_nonshared.a(atexit.os)
 .note.GNU-stack
                0x00000000        0x0 /home/media/data/hudson_build/32bitProduct_SN98600_1.20_P2P_QIWO/ST58600_SRC/toolchain/crosstool-4.5.2/bin/../arm-unknown-linux-uclibcgnueabi/sysroot/usr/lib/uclibc_nonshared.a(atexit.os)
 .text          0x00000000        0x0 /home/media/data/hudson_build/32bitProduct_SN98600_1.20_P2P_QIWO/ST58600_SRC/toolchain/crosstool-4.5.2/bin/../lib/gcc/arm-unknown-linux-uclibcgnueabi/4.5.2/crtend.o
 .data          0x00000000        0x0 /home/media/data/hudson_build/32bitProduct_SN98600_1.20_P2P_QIWO/ST58600_SRC/toolchain/crosstool-4.5.2/bin/../lib/gcc/arm-unknown-linux-uclibcgnueabi/4.5.2/crtend.o
 .bss           0x00000000        0x0 /home/media/data/hudson_build/32bitProduct_SN98600_1.20_P2P_QIWO/ST58600_SRC/toolchain/crosstool-4.5.2/bin/../lib/gcc/arm-unknown-linux-uclibcgnueabi/4.5.2/crtend.o
 .note.GNU-stack
                0x00000000        0x0 /home/media/data/hudson_build/32bitProduct_SN98600_1.20_P2P_QIWO/ST58600_SRC/toolchain/crosstool-4.5.2/bin/../lib/gcc/arm-unknown-linux-uclibcgnueabi/4.5.2/crtend.o
 .text          0x00000000        0x0 /home/media/data/hudson_build/32bitProduct_SN98600_1.20_P2P_QIWO/ST58600_SRC/toolchain/crosstool-4.5.2/bin/../arm-unknown-linux-uclibcgnueabi/sysroot/usr/lib/crtn.o
 .data          0x00000000        0x0 /home/media/data/hudson_build/32bitProduct_SN98600_1.20_P2P_QIWO/ST58600_SRC/toolchain/crosstool-4.5.2/bin/../arm-unknown-linux-uclibcgnueabi/sysroot/usr/lib/crtn.o
 .bss           0x00000000        0x0 /home/media/data/hudson_build/32bitProduct_SN98600_1.20_P2P_QIWO/ST58600_SRC/toolchain/crosstool-4.5.2/bin/../arm-unknown-linux-uclibcgnueabi/sysroot/usr/lib/crtn.o
 .note.GNU-stack
                0x00000000        0x0 /home/media/data/hudson_build/32bitProduct_SN98600_1.20_P2P_QIWO/ST58600_SRC/toolchain/crosstool-4.5.2/bin/../arm-unknown-linux-uclibcgnueabi/sysroot/usr/lib/crtn.o

Memory Configuration

Name             Origin             Length             Attributes
*default*        0x00000000         0xffffffff

Linker script and memory map

LOAD /home/media/data/hudson_build/32bitProduct_SN98600_1.20_P2P_QIWO/ST58600_SRC/toolchain/crosstool-4.5.2/bin/../arm-unknown-linux-uclibcgnueabi/sysroot/usr/lib/crt1.o
LOAD /home/media/data/hudson_build/32bitProduct_SN98600_1.20_P2P_QIWO/ST58600_SRC/toolchain/crosstool-4.5.2/bin/../arm-unknown-linux-uclibcgnueabi/sysroot/usr/lib/crti.o
LOAD /home/media/data/hudson_build/32bitProduct_SN98600_1.20_P2P_QIWO/ST58600_SRC/toolchain/crosstool-4.5.2/bin/../lib/gcc/arm-unknown-linux-uclibcgnueabi/4.5.2/crtbegin.o
START GROUP
LOAD applets/built-in.o
LOAD archival/lib.a
LOAD archival/libarchive/lib.a
LOAD console-tools/lib.a
LOAD coreutils/lib.a
LOAD coreutils/libcoreutils/lib.a
LOAD debianutils/lib.a
LOAD e2fsprogs/lib.a
LOAD editors/lib.a
LOAD findutils/lib.a
LOAD init/lib.a
LOAD libbb/lib.a
LOAD libpwdgrp/lib.a
LOAD loginutils/lib.a
LOAD mailutils/lib.a
LOAD miscutils/lib.a
LOAD modutils/lib.a
LOAD networking/lib.a
LOAD networking/libiproute/lib.a
LOAD networking/udhcp/lib.a
LOAD printutils/lib.a
LOAD procps/lib.a
LOAD runit/lib.a
LOAD selinux/lib.a
LOAD shell/lib.a
LOAD sysklogd/lib.a
LOAD util-linux/lib.a
LOAD util-linux/volume_id/lib.a
LOAD archival/built-in.o
LOAD archival/libarchive/built-in.o
LOAD console-tools/built-in.o
LOAD coreutils/built-in.o
LOAD coreutils/libcoreutils/built-in.o
LOAD debianutils/built-in.o
LOAD e2fsprogs/built-in.o
LOAD editors/built-in.o
LOAD findutils/built-in.o
LOAD init/built-in.o
LOAD libbb/built-in.o
LOAD libpwdgrp/built-in.o
LOAD loginutils/built-in.o
LOAD mailutils/built-in.o
LOAD miscutils/built-in.o
LOAD modutils/built-in.o
LOAD networking/built-in.o
LOAD networking/libiproute/built-in.o
LOAD networking/udhcp/built-in.o
LOAD printutils/built-in.o
LOAD procps/built-in.o
LOAD runit/built-in.o
LOAD selinux/built-in.o
LOAD shell/built-in.o
LOAD sysklogd/built-in.o
LOAD util-linux/built-in.o
LOAD util-linux/volume_id/built-in.o
END GROUP
LOAD /home/media/data/hudson_build/32bitProduct_SN98600_1.20_P2P_QIWO/ST58600_SRC/toolchain/crosstool-4.5.2/bin/../lib/gcc/arm-unknown-linux-uclibcgnueabi/4.5.2/libgcc.a
LOAD /home/media/data/hudson_build/32bitProduct_SN98600_1.20_P2P_QIWO/ST58600_SRC/toolchain/crosstool-4.5.2/bin/../lib/gcc/arm-unknown-linux-uclibcgnueabi/4.5.2/libgcc_eh.a
LOAD /home/media/data/hudson_build/32bitProduct_SN98600_1.20_P2P_QIWO/ST58600_SRC/toolchain/crosstool-4.5.2/bin/../arm-unknown-linux-uclibcgnueabi/sysroot/usr/lib/libc.so
START GROUP
LOAD /home/media/data/hudson_build/32bitProduct_SN98600_1.20_P2P_QIWO/ST58600_SRC/toolchain/crosstool-4.5.2/bin/../arm-unknown-linux-uclibcgnueabi/sysroot/lib/libc.so.0
LOAD /home/media/data/hudson_build/32bitProduct_SN98600_1.20_P2P_QIWO/ST58600_SRC/toolchain/crosstool-4.5.2/bin/../arm-unknown-linux-uclibcgnueabi/sysroot/usr/lib/uclibc_nonshared.a
LOAD /home/media/data/hudson_build/32bitProduct_SN98600_1.20_P2P_QIWO/ST58600_SRC/toolchain/crosstool-4.5.2/bin/../arm-unknown-linux-uclibcgnueabi/sysroot/lib/ld-uClibc.so.0
END GROUP
LOAD /home/media/data/hudson_build/32bitProduct_SN98600_1.20_P2P_QIWO/ST58600_SRC/toolchain/crosstool-4.5.2/bin/../lib/gcc/arm-unknown-linux-uclibcgnueabi/4.5.2/libgcc.a
LOAD /home/media/data/hudson_build/32bitProduct_SN98600_1.20_P2P_QIWO/ST58600_SRC/toolchain/crosstool-4.5.2/bin/../lib/gcc/arm-unknown-linux-uclibcgnueabi/4.5.2/libgcc_eh.a
LOAD /home/media/data/hudson_build/32bitProduct_SN98600_1.20_P2P_QIWO/ST58600_SRC/toolchain/crosstool-4.5.2/bin/../lib/gcc/arm-unknown-linux-uclibcgnueabi/4.5.2/crtend.o
LOAD /home/media/data/hudson_build/32bitProduct_SN98600_1.20_P2P_QIWO/ST58600_SRC/toolchain/crosstool-4.5.2/bin/../arm-unknown-linux-uclibcgnueabi/sysroot/usr/lib/crtn.o
                0x00008000                PROVIDE (__executable_start, 0x8000)
                0x00008114                . = (0x8000 + SIZEOF_HEADERS)

.interp         0x00008114       0x14
 *(SORT(.interp))
 .interp        0x00008114       0x14 /home/media/data/hudson_build/32bitProduct_SN98600_1.20_P2P_QIWO/ST58600_SRC/toolchain/crosstool-4.5.2/bin/../arm-unknown-linux-uclibcgnueabi/sysroot/usr/lib/crt1.o

.note.gnu.build-id
 *(SORT(.note.gnu.build-id))

.hash           0x00008128      0x908
 *(SORT(.hash))
 .hash          0x00008128      0x908 /home/media/data/hudson_build/32bitProduct_SN98600_1.20_P2P_QIWO/ST58600_SRC/toolchain/crosstool-4.5.2/bin/../arm-unknown-linux-uclibcgnueabi/sysroot/usr/lib/crt1.o

.gnu.hash
 *(SORT(.gnu.hash))

.dynsym         0x00008a30     0x1390
 *(SORT(.dynsym))
 .dynsym        0x00008a30     0x1390 /home/media/data/hudson_build/32bitProduct_SN98600_1.20_P2P_QIWO/ST58600_SRC/toolchain/crosstool-4.5.2/bin/../arm-unknown-linux-uclibcgnueabi/sysroot/usr/lib/crt1.o

.dynstr         0x00009dc0      0xa13
 *(SORT(.dynstr))
 .dynstr        0x00009dc0      0xa13 /home/media/data/hudson_build/32bitProduct_SN98600_1.20_P2P_QIWO/ST58600_SRC/toolchain/crosstool-4.5.2/bin/../arm-unknown-linux-uclibcgnueabi/sysroot/usr/lib/crt1.o

.gnu.version    0x0000a7d4        0x0
 *(SORT(.gnu.version))
 .gnu.version   0x00000000        0x0 /home/media/data/hudson_build/32bitProduct_SN98600_1.20_P2P_QIWO/ST58600_SRC/toolchain/crosstool-4.5.2/bin/../arm-unknown-linux-uclibcgnueabi/sysroot/usr/lib/crt1.o

.gnu.version_d  0x0000a7d4        0x0
 *(SORT(.gnu.version_d))
 .gnu.version_d
                0x00000000        0x0 /home/media/data/hudson_build/32bitProduct_SN98600_1.20_P2P_QIWO/ST58600_SRC/toolchain/crosstool-4.5.2/bin/../arm-unknown-linux-uclibcgnueabi/sysroot/usr/lib/crt1.o

.gnu.version_r  0x0000a7d4        0x0
 *(SORT(.gnu.version_r))
 .gnu.version_r
                0x00000000        0x0 /home/media/data/hudson_build/32bitProduct_SN98600_1.20_P2P_QIWO/ST58600_SRC/toolchain/crosstool-4.5.2/bin/../arm-unknown-linux-uclibcgnueabi/sysroot/usr/lib/crt1.o

.rel.dyn        0x0000a7d4       0x48
 *(SORT(.rel.init))
 *(SORT(.rel.text) SORT(.rel.text.*) SORT(.rel.gnu.linkonce.t.*))
 *(SORT(.rel.fini))
 *(SORT(.rel.rodata) SORT(.rel.rodata.*) SORT(.rel.gnu.linkonce.r.*))
 *(SORT(.rel.data.rel.ro*) SORT(.rel.gnu.linkonce.d.rel.ro.*))
 *(SORT(.rel.data) SORT(.rel.data.*) SORT(.rel.gnu.linkonce.d.*))
 *(SORT(.rel.tdata) SORT(.rel.tdata.*) SORT(.rel.gnu.linkonce.td.*))
 *(SORT(.rel.tbss) SORT(.rel.tbss.*) SORT(.rel.gnu.linkonce.tb.*))
 *(SORT(.rel.ctors))
 *(SORT(.rel.dtors))
 *(SORT(.rel.got))
 .rel.got       0x0000a7d4       0x10 /home/media/data/hudson_build/32bitProduct_SN98600_1.20_P2P_QIWO/ST58600_SRC/toolchain/crosstool-4.5.2/bin/../arm-unknown-linux-uclibcgnueabi/sysroot/usr/lib/crt1.o
 *(SORT(.rel.bss) SORT(.rel.bss.*) SORT(.rel.gnu.linkonce.b.*))
 .rel.bss       0x0000a7e4       0x38 /home/media/data/hudson_build/32bitProduct_SN98600_1.20_P2P_QIWO/ST58600_SRC/toolchain/crosstool-4.5.2/bin/../arm-unknown-linux-uclibcgnueabi/sysroot/usr/lib/crt1.o
                0x0000a81c                PROVIDE (__rel_iplt_start, .)
 *(SORT(.rel.iplt))
 .rel.iplt      0x00000000        0x0 /home/media/data/hudson_build/32bitProduct_SN98600_1.20_P2P_QIWO/ST58600_SRC/toolchain/crosstool-4.5.2/bin/../arm-unknown-linux-uclibcgnueabi/sysroot/usr/lib/crt1.o
                0x0000a81c                PROVIDE (__rel_iplt_end, .)
                0x0000a81c                PROVIDE (__rela_iplt_start, .)
                0x0000a81c                PROVIDE (__rela_iplt_end, .)

.rela.dyn       0x0000a81c        0x0
 *(SORT(.rela.init))
 *(SORT(.rela.text) SORT(.rela.text.*) SORT(.rela.gnu.linkonce.t.*))
 *(SORT(.rela.fini))
 *(SORT(.rela.rodata) SORT(.rela.rodata.*) SORT(.rela.gnu.linkonce.r.*))
 *(SORT(.rela.data) SORT(.rela.data.*) SORT(.rela.gnu.linkonce.d.*))
 *(SORT(.rela.tdata) SORT(.rela.tdata.*) SORT(.rela.gnu.linkonce.td.*))
 *(SORT(.rela.tbss) SORT(.rela.tbss.*) SORT(.rela.gnu.linkonce.tb.*))
 *(SORT(.rela.ctors))
 *(SORT(.rela.dtors))
 *(SORT(.rela.got))
 *(SORT(.rela.bss) SORT(.rela.bss.*) SORT(.rela.gnu.linkonce.b.*))
                0x0000a81c                PROVIDE (__rel_iplt_start, .)
                0x0000a81c                PROVIDE (__rel_iplt_end, .)
                0x0000a81c                PROVIDE (__rela_iplt_start, .)
 *(SORT(.rela.iplt))
                0x0000a81c                PROVIDE (__rela_iplt_end, .)

.rel.plt        0x0000a81c      0x928
 *(SORT(.rel.plt))
 .rel.plt       0x0000a81c      0x928 /home/media/data/hudson_build/32bitProduct_SN98600_1.20_P2P_QIWO/ST58600_SRC/toolchain/crosstool-4.5.2/bin/../arm-unknown-linux-uclibcgnueabi/sysroot/usr/lib/crt1.o

.rela.plt
 *(SORT(.rela.plt))

.init           0x0000b144       0x10
 *(SORT(.init))
 .init          0x0000b144        0xc /home/media/data/hudson_build/32bitProduct_SN98600_1.20_P2P_QIWO/ST58600_SRC/toolchain/crosstool-4.5.2/bin/../arm-unknown-linux-uclibcgnueabi/sysroot/usr/lib/crti.o
                0x0000b144                _init
 .init          0x0000b150        0x4 /home/media/data/hudson_build/32bitProduct_SN98600_1.20_P2P_QIWO/ST58600_SRC/toolchain/crosstool-4.5.2/bin/../arm-unknown-linux-uclibcgnueabi/sysroot/usr/lib/crtn.o

.plt            0x0000b154      0xdd0
 *(SORT(.plt))
 .plt           0x0000b154      0xdd0 /home/media/data/hudson_build/32bitProduct_SN98600_1.20_P2P_QIWO/ST58600_SRC/toolchain/crosstool-4.5.2/bin/../arm-unknown-linux-uclibcgnueabi/sysroot/usr/lib/crt1.o
                0x0000b168                longjmp
                0x0000b174                putchar
                0x0000b180                chroot
                0x0000b18c                strcpy
                0x0000b198                setrlimit64
                0x0000b1a4                unsetenv
                0x0000b1b0                mkstemp64
                0x0000b1bc                waitpid
                0x0000b1c8                ioctl
                0x0000b1d4                getgid
                0x0000b1e0                sysconf
                0x0000b1ec                printf
                0x0000b1f8                random
                0x0000b204                getspnam_r
                0x0000b210                cfgetospeed
                0x0000b21c                recv
                0x0000b228                connect
                0x0000b234                ungetc
                0x0000b240                sigemptyset
                0x0000b24c                utimes
                0x0000b258                shmctl
                0x0000b264                strerror
                0x0000b270                geteuid
                0x0000b27c                stat64
                0x0000b288                memmove
                0x0000b294                getopt_long
                0x0000b2a0                snprintf
                0x0000b2ac                pmap_set
                0x0000b2b8                mknod
                0x0000b2c4                getgrgid
                0x0000b2d0                clnt_spcreateerror
                0x0000b2dc                times
                0x0000b2e8                authunix_create_default
                0x0000b2f4                getenv
                0x0000b300                fchmod
                0x0000b30c                getegid
                0x0000b318                setlinebuf
                0x0000b324                setpriority
                0x0000b330                getpriority
                0x0000b33c                bsearch
                0x0000b348                usleep
                0x0000b360                execve
                0x0000b36c                getpagesize
                0x0000b378                getpid
                0x0000b384                qsort
                0x0000b390                fchown
                0x0000b39c                fscanf
                0x0000b3a8                fgets
                0x0000b3b4                dirname
                0x0000b3c0                fcntl64
                0x0000b3cc                getrlimit64
                0x0000b3d8                memcpy
                0x0000b3e4                pmap_getport
                0x0000b3f0                readlink
                0x0000b3fc                puts
                0x0000b408                dup2
                0x0000b414                tcflush
                0x0000b420                getuid
                0x0000b42c                semctl
                0x0000b438                system
                0x0000b444                feof
                0x0000b450                hasmntopt
                0x0000b45c                malloc
                0x0000b468                isatty
                0x0000b474                cfgetispeed
                0x0000b480                sleep
                0x0000b48c                sysinfo
                0x0000b498                vsnprintf
                0x0000b4a4                strtoll
                0x0000b4b0                recvfrom
                0x0000b4bc                xdr_bytes
                0x0000b4c8                tcdrain
                0x0000b4d4                strtoul
                0x0000b4e0                getutent
                0x0000b4ec                gethostbyaddr
                0x0000b4f8                settimeofday
                0x0000b504                rmdir
                0x0000b510                socket
                0x0000b51c                select
                0x0000b528                init_module
                0x0000b534                lchown
                0x0000b540                setgroups
                0x0000b54c                delete_module
                0x0000b558                fflush
                0x0000b564                realpath
                0x0000b570                getrpcbyname
                0x0000b57c                putenv
                0x0000b588                sigaddset
                0x0000b594                clearenv
                0x0000b5a0                chown
                0x0000b5ac                strncasecmp
                0x0000b5b8                setpgid
                0x0000b5c4                freeaddrinfo
                0x0000b5d0                abort
                0x0000b5dc                chmod
                0x0000b5e8                getnameinfo
                0x0000b5f4                fstat64
                0x0000b600                alarm
                0x0000b60c                strtol
                0x0000b618                pipe
                0x0000b624                getpgrp
                0x0000b630                strnlen
                0x0000b63c                uname
                0x0000b648                accept
                0x0000b654                cfsetispeed
                0x0000b660                rename
                0x0000b66c                strrchr
                0x0000b678                xdr_enum
                0x0000b684                strtod
                0x0000b690                write
                0x0000b69c                atof
                0x0000b6a8                fdatasync
                0x0000b6b4                fprintf
                0x0000b6c0                kill
                0x0000b6cc                ctime
                0x0000b6d8                strcat
                0x0000b6e4                bind
                0x0000b6f0                getmntent_r
                0x0000b6fc                inet_addr
                0x0000b708                vprintf
                0x0000b714                umount2
                0x0000b720                if_nametoindex
                0x0000b738                reboot
                0x0000b744                chdir
                0x0000b750                initgroups
                0x0000b75c                pmap_unset
                0x0000b768                endgrent
                0x0000b774                setsockopt
                0x0000b780                wait3
                0x0000b78c                cfsetospeed
                0x0000b798                memchr
                0x0000b7a4                swapoff
                0x0000b7b0                wait
                0x0000b7bc                umask
                0x0000b7c8                dprintf
                0x0000b7d4                mktime
                0x0000b7e0                strcasestr
                0x0000b7ec                ferror
                0x0000b7f8                strstr
                0x0000b804                rand
                0x0000b810                setgid
                0x0000b81c                signal
                0x0000b828                read
                0x0000b834                endutent
                0x0000b840                openlog
                0x0000b84c                sendmsg
                0x0000b858                clntudp_create
                0x0000b864                closelog
                0x0000b870                strncmp
                0x0000b87c                sethostname
                0x0000b888                __cmsg_nxthdr
                0x0000b894                strncpy
                0x0000b8a0                unlink
                0x0000b8ac                sync
                0x0000b8b8                setenv
                0x0000b8c4                strcasecmp
                0x0000b8d0                sendto
                0x0000b8e8                realloc
                0x0000b8f4                __cxa_atexit
                0x0000b900                readdir64
                0x0000b90c                strtok
                0x0000b918                sigfillset
                0x0000b924                memcmp
                0x0000b930                listen
                0x0000b93c                xdr_opaque
                0x0000b948                fdopen
                0x0000b954                fork
                0x0000b960                sscanf
                0x0000b96c                execv
                0x0000b978                setmntent
                0x0000b984                lstat64
                0x0000b990                setresuid
                0x0000b99c                execlp
                0x0000b9a8                sigaction
                0x0000b9b4                endmntent
                0x0000b9c0                killpg
                0x0000b9cc                fread
                0x0000b9d8                ttyname_r
                0x0000b9e4                __uClibc_main
                0x0000b9f0                getlogin_r
                0x0000b9fc                strdup
                0x0000ba08                inet_aton
                0x0000ba14                strtoull
                0x0000ba20                regcomp
                0x0000ba2c                symlink
                0x0000ba38                gettimeofday
                0x0000ba44                getopt
                0x0000ba50                localtime
                0x0000ba5c                memset
                0x0000ba68                fnmatch
                0x0000ba74                srand
                0x0000ba80                clearerr
                0x0000ba8c                mallopt
                0x0000ba98                fclose
                0x0000baa4                open64
                0x0000bab0                xdr_string
                0x0000babc                inet_ntoa
                0x0000bac8                getppid
                0x0000bad4                tcgetattr
                0x0000bae0                regexec
                0x0000baec                time
                0x0000baf8                opendir
                0x0000bb04                getgroups
                0x0000bb10                msgctl
                0x0000bb1c                poll
                0x0000bb28                syslog
                0x0000bb34                xdr_u_int
                0x0000bb40                getopt_long_only
                0x0000bb4c                mount
                0x0000bb58                strcmp
                0x0000bb64                pmap_getmaps
                0x0000bb70                getpwuid
                0x0000bb7c                __h_errno_location
                0x0000bb88                dup
                0x0000bb94                swapon
                0x0000bba0                __gnu_Unwind_Find_exidx
                0x0000bbac                getcwd
                0x0000bbb8                gethostbyname
                0x0000bbc4                strsignal
                0x0000bbd0                getpwnam
                0x0000bbdc                getservbyname
                0x0000bbe8                fgetc
                0x0000bbf4                sprintf
                0x0000bc00                clnttcp_create
                0x0000bc0c                strcspn
                0x0000bc18                cfsetspeed
                0x0000bc24                regerror
                0x0000bc30                umount
                0x0000bc3c                pututline
                0x0000bc48                vfork
                0x0000bc54                srandom
                0x0000bc60                strsep
                0x0000bc6c                fsync
                0x0000bc78                fputc
                0x0000bc84                clnt_sperror
                0x0000bc90                hstrerror
                0x0000bc9c                localtime_r
                0x0000bca8                getaddrinfo
                0x0000bcb4                setresgid
                0x0000bcc0                strftime
                0x0000bccc                getmntent
                0x0000bcd8                fwrite
                0x0000bce4                access
                0x0000bcf0                bindresvport
                0x0000bcfc                strptime
                0x0000bd08                tcgetpgrp
                0x0000bd14                __errno_location
                0x0000bd20                link
                0x0000bd2c                exit
                0x0000bd38                stime
                0x0000bd44                klogctl
                0x0000bd50                sigdelset
                0x0000bd5c                getgrnam
                0x0000bd68                atoi
                0x0000bd74                fileno
                0x0000bd80                _setjmp
                0x0000bd8c                _exit
                0x0000bd98                strspn
                0x0000bda4                strlen
                0x0000bdb0                lseek64
                0x0000bdbc                xdr_array
                0x0000bdc8                regfree
                0x0000bdd4                updwtmp
                0x0000bde0                strchr
                0x0000bdec                setutent
                0x0000bdf8                fputs
                0x0000be04                adjtimex
                0x0000be10                execvp
                0x0000be1c                setsid
                0x0000be28                closedir
                0x0000be34                vasprintf
                0x0000be40                recvmsg
                0x0000be4c                strchrnul
                0x0000be58                setuid
                0x0000be64                gethostid
                0x0000be70                fseeko64
                0x0000be7c                tcsetattr
                0x0000be88                mkdir
                0x0000bea0                close
                0x0000beac                vfprintf
                0x0000beb8                strpbrk
                0x0000bec4                tcsetpgrp
                0x0000bed0                xdr_int
                0x0000bedc                raise
                0x0000bee8                free
                0x0000bef4                sigprocmask
                0x0000bf00                getsockname
                0x0000bf0c                fopen64
                0x0000bf18                ftruncate64

.iplt           0x0000bf24        0x0
 *(SORT(.iplt))
 .iplt          0x00000000        0x0 /home/media/data/hudson_build/32bitProduct_SN98600_1.20_P2P_QIWO/ST58600_SRC/toolchain/crosstool-4.5.2/bin/../arm-unknown-linux-uclibcgnueabi/sysroot/usr/lib/crt1.o

.text           0x0000bf24    0x40364
 *(SORT(.text.unlikely) SORT(.text.*_unlikely))
 *(SORT(.text.exit) SORT(.text.exit.*))
 *(SORT(.text.startup) SORT(.text.startup.*))
 *(SORT(.text.hot) SORT(.text.hot.*))
 *(SORT(.text) SORT(.stub) SORT(.text.*) SORT(.gnu.linkonce.t.*))
 .text          0x0000bf24       0x3c /home/media/data/hudson_build/32bitProduct_SN98600_1.20_P2P_QIWO/ST58600_SRC/toolchain/crosstool-4.5.2/bin/../arm-unknown-linux-uclibcgnueabi/sysroot/usr/lib/crt1.o
                0x0000bf24                _start
 .text          0x0000bf60       0x98 /home/media/data/hudson_build/32bitProduct_SN98600_1.20_P2P_QIWO/ST58600_SRC/toolchain/crosstool-4.5.2/bin/../lib/gcc/arm-unknown-linux-uclibcgnueabi/4.5.2/crtbegin.o
 .text.get_trimmed_slice
                0x0000bff8       0x34 libbb/lib.a(appletlib.o)
 .text.applet_name_compare
                0x0000c02c       0x28 libbb/lib.a(appletlib.o)
 .text.bb_show_usage
                0x0000c054        0x8 libbb/lib.a(appletlib.o)
                0x0000c054                bb_show_usage
 .text.find_applet_by_name
                0x0000c05c       0x38 libbb/lib.a(appletlib.o)
                0x0000c05c                find_applet_by_name
 .text.parse_config_file
                0x0000c094      0x3c0 libbb/lib.a(appletlib.o)
 .text.lbb_prepare
                0x0000c454       0x28 libbb/lib.a(appletlib.o)
                0x0000c454                lbb_prepare
 .text.run_applet_no_and_exit
                0x0000c47c      0x240 libbb/lib.a(appletlib.o)
                0x0000c47c                run_applet_no_and_exit
 .text.run_applet_and_exit
                0x0000c6bc      0x36c libbb/lib.a(appletlib.o)
                0x0000c6bc                run_applet_and_exit
 .text.main     0x0000ca28       0x84 libbb/lib.a(appletlib.o)
                0x0000ca28                main
 .text.bb_basename
                0x0000caac       0x20 libbb/lib.a(bb_basename.o)
                0x0000caac                bb_basename
 .text.ret_ERANGE
                0x0000cacc       0x20 libbb/lib.a(bb_strtonum.o)
 .text.handle_errors
                0x0000caec       0x58 libbb/lib.a(bb_strtonum.o)
 .text.bb_strtoull
                0x0000cb44       0x5c libbb/lib.a(bb_strtonum.o)
                0x0000cb44                bb_strtoull
 .text.bb_strtoll
                0x0000cba0       0x64 libbb/lib.a(bb_strtonum.o)
                0x0000cba0                bb_strtoll
 .text.bb_strtoul
                0x0000cc04       0x60 libbb/lib.a(bb_strtonum.o)
                0x0000cc04                bb_strtoul
 .text.bb_strtol
                0x0000cc64       0x68 libbb/lib.a(bb_strtonum.o)
                0x0000cc64                bb_strtol
 .text.concat_path_file
                0x0000cccc       0x60 libbb/lib.a(concat_path_file.o)
                0x0000cccc                concat_path_file
 .text.bb_get_last_path_component_nostrip
                0x0000cd2c       0x3c libbb/lib.a(get_last_path_component.o)
                0x0000cd2c                bb_get_last_path_component_nostrip
 .text.bb_get_last_path_component_strip
                0x0000cd68       0x50 libbb/lib.a(get_last_path_component.o)
                0x0000cd68                bb_get_last_path_component_strip
 .text.last_char_is
                0x0000cdb8       0x44 libbb/lib.a(last_char_is.o)
                0x0000cdb8                last_char_is
 .text.bb_perror_msg
                0x0000cdfc       0x48 libbb/lib.a(perror_msg.o)
                0x0000cdfc                bb_perror_msg
 .text.bb_perror_msg_and_die
                0x0000ce44       0x40 libbb/lib.a(perror_msg.o)
                0x0000ce44                bb_perror_msg_and_die
 .text.bb_simple_perror_msg
                0x0000ce84       0x10 libbb/lib.a(perror_msg.o)
                0x0000ce84                bb_simple_perror_msg
 .text.bb_simple_perror_msg_and_die
                0x0000ce94       0x14 libbb/lib.a(perror_msg.o)
                0x0000ce94                bb_simple_perror_msg_and_die
 .text.skip_whitespace
                0x0000cea8       0x20 libbb/lib.a(skip_whitespace.o)
                0x0000cea8                skip_whitespace
 .text.skip_non_whitespace
                0x0000cec8       0x28 libbb/lib.a(skip_whitespace.o)
                0x0000cec8                skip_non_whitespace
 .text.skip_dev_pfx
                0x0000cef0       0x28 libbb/lib.a(skip_whitespace.o)
                0x0000cef0                skip_dev_pfx
 .text.bb_verror_msg
                0x0000cf18      0x1c4 libbb/lib.a(verror_msg.o)
                0x0000cf18                bb_verror_msg
 .text.bb_error_msg_and_die
                0x0000d0dc       0x20 libbb/lib.a(verror_msg.o)
                0x0000d0dc                bb_error_msg_and_die
 .text.bb_error_msg
                0x0000d0fc       0x28 libbb/lib.a(verror_msg.o)
                0x0000d0fc                bb_error_msg
 .text.xfdopen_helper
                0x0000d124       0x3c libbb/lib.a(wfopen.o)
 .text.fopen_or_warn
                0x0000d160       0x24 libbb/lib.a(wfopen.o)
                0x0000d160                fopen_or_warn
 .text.fopen_for_read
                0x0000d184        0xc libbb/lib.a(wfopen.o)
                0x0000d184                fopen_for_read
 .text.xfopen_for_read
                0x0000d190        0xc libbb/lib.a(wfopen.o)
                0x0000d190                xfopen_for_read
 .text.xfopen_for_write
                0x0000d19c        0xc libbb/lib.a(wfopen.o)
                0x0000d19c                xfopen_for_write
 .text.xfdopen_for_write
                0x0000d1a8        0xc libbb/lib.a(wfopen.o)
                0x0000d1a8                xfdopen_for_write
 .text.xfunc_die
                0x0000d1b4       0x2c libbb/lib.a(xfunc_die.o)
                0x0000d1b4                xfunc_die
 .text.wh_helper
                0x0000d1e0       0x50 libbb/lib.a(xfuncs.o)
 .text.ndelay_on
                0x0000d230       0x24 libbb/lib.a(xfuncs.o)
                0x0000d230                ndelay_on
 .text.ndelay_off
                0x0000d254       0x24 libbb/lib.a(xfuncs.o)
                0x0000d254                ndelay_off
 .text.close_on_exec_on
                0x0000d278        0xc libbb/lib.a(xfuncs.o)
                0x0000d278                close_on_exec_on
 .text.strncpy_IFNAMSIZ
                0x0000d284        0x8 libbb/lib.a(xfuncs.o)
                0x0000d284                strncpy_IFNAMSIZ
 .text.utoa_to_buf
                0x0000d28c       0x94 libbb/lib.a(xfuncs.o)
                0x0000d28c                utoa_to_buf
 .text.itoa_to_buf
                0x0000d320       0x28 libbb/lib.a(xfuncs.o)
                0x0000d320                itoa_to_buf
 .text.utoa     0x0000d348       0x28 libbb/lib.a(xfuncs.o)
                0x0000d348                utoa
 .text.itoa     0x0000d370       0x28 libbb/lib.a(xfuncs.o)
                0x0000d370                itoa
 .text.bin2hex  0x0000d398       0x50 libbb/lib.a(xfuncs.o)
                0x0000d398                bin2hex
 .text.hex2bin  0x0000d3e8       0xe8 libbb/lib.a(xfuncs.o)
                0x0000d3e8                hex2bin
 .text.bb_putchar_stderr
                0x0000d4d0       0x1c libbb/lib.a(xfuncs.o)
                0x0000d4d0                bb_putchar_stderr
 .text.full_write1_str
                0x0000d4ec       0x20 libbb/lib.a(xfuncs.o)
                0x0000d4ec                full_write1_str
 .text.full_write2_str
                0x0000d50c       0x20 libbb/lib.a(xfuncs.o)
                0x0000d50c                full_write2_str
 .text.get_terminal_width_height
                0x0000d52c       0x9c libbb/lib.a(xfuncs.o)
                0x0000d52c                get_terminal_width_height
 .text.tcsetattr_stdin_TCSANOW
                0x0000d5c8       0x10 libbb/lib.a(xfuncs.o)
                0x0000d5c8                tcsetattr_stdin_TCSANOW
 .text.safe_waitpid
                0x0000d5d8       0x44 libbb/lib.a(xfuncs.o)
                0x0000d5d8                safe_waitpid
 .text.wait_any_nohang
                0x0000d61c       0x10 libbb/lib.a(xfuncs.o)
                0x0000d61c                wait_any_nohang
 .text.wait4pid
                0x0000d62c       0x54 libbb/lib.a(xfuncs.o)
                0x0000d62c                wait4pid
 .text.xmalloc  0x0000d680       0x34 libbb/lib.a(xfuncs_printf.o)
                0x0000d680                xmalloc
 .text.xrealloc
                0x0000d6b4       0x34 libbb/lib.a(xfuncs_printf.o)
                0x0000d6b4                xrealloc
 .text.xzalloc  0x0000d6e8       0x24 libbb/lib.a(xfuncs_printf.o)
                0x0000d6e8                xzalloc
 .text.xstrdup  0x0000d70c       0x2c libbb/lib.a(xfuncs_printf.o)
                0x0000d70c                xstrdup
 .text.xstrndup
                0x0000d738       0x50 libbb/lib.a(xfuncs_printf.o)
                0x0000d738                xstrndup
 .text.xfopen   0x0000d788       0x28 libbb/lib.a(xfuncs_printf.o)
                0x0000d788                xfopen
 .text.xopen3   0x0000d7b0       0x28 libbb/lib.a(xfuncs_printf.o)
                0x0000d7b0                xopen3
 .text.xopen    0x0000d7d8        0xc libbb/lib.a(xfuncs_printf.o)
                0x0000d7d8                xopen
 .text.xopen_nonblocking
                0x0000d7e4        0x8 libbb/lib.a(xfuncs_printf.o)
                0x0000d7e4                xopen_nonblocking
 .text.open3_or_warn
                0x0000d7ec       0x2c libbb/lib.a(xfuncs_printf.o)
                0x0000d7ec                open3_or_warn
 .text.open_or_warn
                0x0000d818        0xc libbb/lib.a(xfuncs_printf.o)
                0x0000d818                open_or_warn
 .text.xrename  0x0000d824       0x2c libbb/lib.a(xfuncs_printf.o)
                0x0000d824                xrename
 .text.xpipe    0x0000d850       0x1c libbb/lib.a(xfuncs_printf.o)
                0x0000d850                xpipe
 .text.xdup2    0x0000d86c       0x20 libbb/lib.a(xfuncs_printf.o)
                0x0000d86c                xdup2
 .text.xmove_fd
                0x0000d88c       0x20 libbb/lib.a(xfuncs_printf.o)
                0x0000d88c                xmove_fd
 .text.xwrite   0x0000d8ac       0x28 libbb/lib.a(xfuncs_printf.o)
                0x0000d8ac                xwrite
 .text.xwrite_str
                0x0000d8d4       0x28 libbb/lib.a(xfuncs_printf.o)
                0x0000d8d4                xwrite_str
 .text.xclose   0x0000d8fc       0x1c libbb/lib.a(xfuncs_printf.o)
                0x0000d8fc                xclose
 .text.xlseek   0x0000d918       0x54 libbb/lib.a(xfuncs_printf.o)
                0x0000d918                xlseek
 .text.xmkstemp
                0x0000d96c       0x28 libbb/lib.a(xfuncs_printf.o)
                0x0000d96c                xmkstemp
 .text.die_if_ferror
                0x0000d994       0x24 libbb/lib.a(xfuncs_printf.o)
                0x0000d994                die_if_ferror
 .text.die_if_ferror_stdout
                0x0000d9b8       0x18 libbb/lib.a(xfuncs_printf.o)
                0x0000d9b8                die_if_ferror_stdout
 .text.fflush_all
                0x0000d9d0        0x8 libbb/lib.a(xfuncs_printf.o)
                0x0000d9d0                fflush_all
 .text.bb_putchar
                0x0000d9d8       0x10 libbb/lib.a(xfuncs_printf.o)
                0x0000d9d8                bb_putchar
 .text.xprint_and_close_file
                0x0000d9e8       0x3c libbb/lib.a(xfuncs_printf.o)
                0x0000d9e8                xprint_and_close_file
 .text.xasprintf
                0x0000da24       0x40 libbb/lib.a(xfuncs_printf.o)
                0x0000da24                xasprintf
 .text.xsetenv  0x0000da64       0x20 libbb/lib.a(xfuncs_printf.o)
                0x0000da64                xsetenv
 .text.bb_unsetenv
                0x0000da84       0x44 libbb/lib.a(xfuncs_printf.o)
                0x0000da84                bb_unsetenv
 .text.bb_unsetenv_and_free
                0x0000dac8       0x18 libbb/lib.a(xfuncs_printf.o)
                0x0000dac8                bb_unsetenv_and_free
 .text.xsetgid  0x0000dae0       0x1c libbb/lib.a(xfuncs_printf.o)
                0x0000dae0                xsetgid
 .text.xsetuid  0x0000dafc       0x1c libbb/lib.a(xfuncs_printf.o)
                0x0000dafc                xsetuid
 .text.xchdir   0x0000db18       0x24 libbb/lib.a(xfuncs_printf.o)
                0x0000db18                xchdir
 .text.xchroot  0x0000db3c       0x24 libbb/lib.a(xfuncs_printf.o)
                0x0000db3c                xchroot
 .text.warn_opendir
                0x0000db60       0x2c libbb/lib.a(xfuncs_printf.o)
                0x0000db60                warn_opendir
 .text.xopendir
                0x0000db8c       0x28 libbb/lib.a(xfuncs_printf.o)
                0x0000db8c                xopendir
 .text.xsocket  0x0000dbb4       0x20 libbb/lib.a(xfuncs_printf.o)
                0x0000dbb4                xsocket
 .text.xbind    0x0000dbd4       0x1c libbb/lib.a(xfuncs_printf.o)
                0x0000dbd4                xbind
 .text.xsendto  0x0000dbf0       0x30 libbb/lib.a(xfuncs_printf.o)
                0x0000dbf0                xsendto
 .text.xstat    0x0000dc20       0x24 libbb/lib.a(xfuncs_printf.o)
                0x0000dc20                xstat
 .text.xfstat   0x0000dc44       0x1c libbb/lib.a(xfuncs_printf.o)
                0x0000dc44                xfstat
 .text.ioctl_or_perror_and_die
                0x0000dc60       0x50 libbb/lib.a(xfuncs_printf.o)
                0x0000dc60                ioctl_or_perror_and_die
 .text.ioctl_or_perror
                0x0000dcb0       0x50 libbb/lib.a(xfuncs_printf.o)
                0x0000dcb0                ioctl_or_perror
 .text.bb_ioctl_or_warn
                0x0000dd00       0x24 libbb/lib.a(xfuncs_printf.o)
                0x0000dd00                bb_ioctl_or_warn
 .text.bb_xioctl
                0x0000dd24       0x20 libbb/lib.a(xfuncs_printf.o)
                0x0000dd24                bb_xioctl
 .text.xmalloc_ttyname
                0x0000dd44       0x40 libbb/lib.a(xfuncs_printf.o)
                0x0000dd44                xmalloc_ttyname
 .text.generate_uuid
                0x0000dd84       0xa4 libbb/lib.a(xfuncs_printf.o)
                0x0000dd84                generate_uuid
 .text.xfork    0x0000de28       0x20 libbb/lib.a(xfuncs_printf.o)
                0x0000de28                xfork
 .text.xmalloc_readlink
                0x0000de48       0x64 libbb/lib.a(xreadlink.o)
                0x0000de48                xmalloc_readlink
 .text.xmalloc_follow_symlinks
                0x0000deac       0xc0 libbb/lib.a(xreadlink.o)
                0x0000deac                xmalloc_follow_symlinks
 .text.xmalloc_readlink_or_warn
                0x0000df6c       0x54 libbb/lib.a(xreadlink.o)
                0x0000df6c                xmalloc_readlink_or_warn
 .text.xmalloc_realpath
                0x0000dfc0       0x24 libbb/lib.a(xreadlink.o)
                0x0000dfc0                xmalloc_realpath
 .text.bb_full_fd_action
                0x0000dfe4      0x124 libbb/lib.a(copyfd.o)
 .text.bb_copyfd_size
                0x0000e108       0x18 libbb/lib.a(copyfd.o)
                0x0000e108                bb_copyfd_size
 .text.bb_copyfd_exact_size
                0x0000e120       0x58 libbb/lib.a(copyfd.o)
                0x0000e120                bb_copyfd_exact_size
 .text.bb_copyfd_eof
                0x0000e178        0xc libbb/lib.a(copyfd.o)
                0x0000e178                bb_copyfd_eof
 .text.full_write
                0x0000e184       0x58 libbb/lib.a(full_write.o)
                0x0000e184                full_write
 .text.safe_read
                0x0000e1dc       0x44 libbb/lib.a(read.o)
                0x0000e1dc                safe_read
 .text.full_read
                0x0000e220       0x5c libbb/lib.a(read.o)
                0x0000e220                full_read
 .text.read_close
                0x0000e27c       0x20 libbb/lib.a(read.o)
                0x0000e27c                read_close
 .text.open_read_close
                0x0000e29c       0x30 libbb/lib.a(read.o)
                0x0000e29c                open_read_close
 .text.safe_write
                0x0000e2cc       0x44 libbb/lib.a(safe_write.o)
                0x0000e2cc                safe_write
 .text.parse_datestr
                0x0000e310      0x378 libbb/lib.a(time.o)
                0x0000e310                parse_datestr
 .text.validate_tm_time
                0x0000e688       0x2c libbb/lib.a(time.o)
                0x0000e688                validate_tm_time
 .text.monotonic_us
                0x0000e6b4       0x34 libbb/lib.a(time.o)
                0x0000e6b4                monotonic_us
 .text.monotonic_ms
                0x0000e6e8       0x40 libbb/lib.a(time.o)
                0x0000e6e8                monotonic_ms
 .text.monotonic_sec
                0x0000e728        0x8 libbb/lib.a(time.o)
                0x0000e728                monotonic_sec
 .text.bcode    0x0000e730       0x24 loginutils/lib.a(getty.o)
 .text.getty_main
                0x0000e754      0x880 loginutils/lib.a(getty.o)
                0x0000e754                getty_main
 .text.alarm_handler
                0x0000efd4       0x30 loginutils/lib.a(login.o)
 .text.login_main
                0x0000f004      0x5a0 loginutils/lib.a(login.o)
                0x0000f004                login_main
 .text.nuke_str
                0x0000f5a4       0x24 loginutils/lib.a(passwd.o)
 .text.passwd_main
                0x0000f5c8      0x464 loginutils/lib.a(passwd.o)
                0x0000f5c8                passwd_main
 .text.sulogin_main
                0x0000fa2c      0x238 loginutils/lib.a(sulogin.o)
                0x0000fa2c                sulogin_main
 .text.acquire_vt
                0x0000fc64       0x14 loginutils/lib.a(vlock.o)
 .text.release_vt
                0x0000fc78       0x28 loginutils/lib.a(vlock.o)
 .text.vlock_main
                0x0000fca0      0x1d4 loginutils/lib.a(vlock.o)
                0x0000fca0                vlock_main
 .text.show_progress.clone.0
                0x0000fe74       0x50 miscutils/lib.a(flash_eraseall.o)
 .text.flash_eraseall_main
                0x0000fec4      0x358 miscutils/lib.a(flash_eraseall.o)
                0x0000fec4                flash_eraseall_main
 .text.mt_main  0x0001021c      0x13c miscutils/lib.a(mt.o)
                0x0001021c                mt_main
 .text.strings_main
                0x00010358      0x1bc miscutils/lib.a(strings.o)
                0x00010358                strings_main
 .text.ptok     0x00010514       0x30 miscutils/lib.a(time.o)
 .text.run_command
                0x00010544       0xe4 miscutils/lib.a(time.o)
 .text.time_main
                0x00010628      0x638 miscutils/lib.a(time.o)
                0x00010628                time_main
 .text.reset_stringbuf
                0x00010c60       0x18 modutils/lib.a(modprobe-small.o)
 .text.replace  0x00010c78       0x1c modutils/lib.a(modprobe-small.o)
 .text.load_module
                0x00010c94       0x54 modutils/lib.a(modprobe-small.o)
 .text.moderror
                0x00010ce8       0x50 modutils/lib.a(modprobe-small.o)
 .text.load_dep_bb
                0x00010d38      0x140 modutils/lib.a(modprobe-small.o)
 .text.pathname_matches_modname
                0x00010e78       0x5c modutils/lib.a(modprobe-small.o)
 .text.find_keyword
                0x00010ed4       0x8c modutils/lib.a(modprobe-small.o)
 .text.append   0x00010f60       0x70 modutils/lib.a(modprobe-small.o)
 .text.copy_stringbuf
                0x00010fd0       0x2c modutils/lib.a(modprobe-small.o)
 .text.str_2_list
                0x00010ffc       0x48 modutils/lib.a(modprobe-small.o)
 .text.parse_module
                0x00011044      0x16c modutils/lib.a(modprobe-small.o)
 .text.find_alias
                0x000111b0      0x30c modutils/lib.a(modprobe-small.o)
 .text.process_module
                0x000114bc      0x2e0 modutils/lib.a(modprobe-small.o)
 .text.fileAction
                0x0001179c       0xd0 modutils/lib.a(modprobe-small.o)
 .text.modprobe_main
                0x0001186c      0x23c modutils/lib.a(modprobe-small.o)
                0x0001186c                modprobe_main
 .text.do_sethostname
                0x00011aa8       0x88 networking/lib.a(hostname.o)
 .text.hostname_main
                0x00011b30      0x118 networking/lib.a(hostname.o)
                0x00011b30                hostname_main
 .text.ifconfig_main
                0x00011c48      0x430 networking/lib.a(ifconfig.o)
                0x00011c48                ifconfig_main
 .text.remove_fd_from_set
                0x00012078       0x3c networking/lib.a(inetd.o)
 .text.init_ring
                0x000120b4       0x30 networking/lib.a(inetd.o)
 .text.discard_dg
                0x000120e4       0x18 networking/lib.a(inetd.o)
 .text.maybe_close
                0x000120fc        0xc networking/lib.a(inetd.o)
 .text.free_servtab_strings
                0x00012108       0x58 networking/lib.a(inetd.o)
 .text.bump_nofile
                0x00012160       0xdc networking/lib.a(inetd.o)
 .text.add_fd_to_set
                0x0001223c       0x88 networking/lib.a(inetd.o)
 .text.block_CHLD_HUP_ALRM
                0x000122c4       0x44 networking/lib.a(inetd.o)
 .text.restore_sigmask
                0x00012308       0x10 networking/lib.a(inetd.o)
 .text.rearm_alarm
                0x00012318       0x24 networking/lib.a(inetd.o)
 .text.xzalloc_lsa
                0x0001233c       0x28 networking/lib.a(inetd.o)
 .text.new_servtab
                0x00012364       0x18 networking/lib.a(inetd.o)
 .text.unregister_rpc
                0x0001237c       0x4c networking/lib.a(inetd.o)
 .text.clean_up_and_exit
                0x000123c8       0x8c networking/lib.a(inetd.o)
 .text.reap_child
                0x00012454       0xc8 networking/lib.a(inetd.o)
 .text.daytime_dg
                0x0001251c       0xb0 networking/lib.a(inetd.o)
 .text.daytime_stream
                0x000125cc       0x38 networking/lib.a(inetd.o)
 .text.machtime
                0x00012604       0x3c networking/lib.a(inetd.o)
 .text.machtime_dg
                0x00012640       0x84 networking/lib.a(inetd.o)
 .text.machtime_stream
                0x000126c4       0x24 networking/lib.a(inetd.o)
 .text.chargen_dg
                0x000126e8      0x104 networking/lib.a(inetd.o)
 .text.chargen_stream
                0x000127ec       0xa0 networking/lib.a(inetd.o)
 .text.discard_stream
                0x0001288c       0x2c networking/lib.a(inetd.o)
 .text.echo_stream
                0x000128b8       0x3c networking/lib.a(inetd.o)
 .text.echo_dg  0x000128f4       0x8c networking/lib.a(inetd.o)
 .text.register_rpc
                0x00012980       0xd0 networking/lib.a(inetd.o)
 .text.prepare_socket_fd
                0x00012a50      0x15c networking/lib.a(inetd.o)
 .text.reread_config_file
                0x00012bac      0x9a8 networking/lib.a(inetd.o)
 .text.retry_network_setup
                0x00013554       0x7c networking/lib.a(inetd.o)
 .text.inetd_main
                0x000135d0      0x908 networking/lib.a(inetd.o)
                0x000135d0                inetd_main
 .text.in_ib    0x00013ed8       0x28 networking/lib.a(interface.o)
                0x00013ed8                in_ib
 .text.my_SQRT  0x00013f00       0x9c networking/lib.a(ntpd.o)
 .text.filter_datapoints
                0x00013f9c      0x32c networking/lib.a(ntpd.o)
 .text.reset_peer_stats
                0x000142c8      0x114 networking/lib.a(ntpd.o)
 .text.compare_point_edge
                0x000143dc       0x50 networking/lib.a(ntpd.o)
 .text.compare_survivor_metric
                0x0001442c       0x50 networking/lib.a(ntpd.o)
 .text.poll_interval
                0x0001447c       0x44 networking/lib.a(ntpd.o)
 .text.do_sendto
                0x000144c0       0x80 networking/lib.a(ntpd.o)
 .text.run_script
                0x00014540      0x138 networking/lib.a(ntpd.o)
 .text.d_to_lfp
                0x00014678       0x90 networking/lib.a(ntpd.o)
 .text.d_to_sfp
                0x00014708       0x70 networking/lib.a(ntpd.o)
 .text.sfp_to_d
                0x00014778       0x6c networking/lib.a(ntpd.o)
 .text.lfp_to_d
                0x000147e4       0x7c networking/lib.a(ntpd.o)
 .text.gettime1900d
                0x00014860       0x78 networking/lib.a(ntpd.o)
 .text.ntp_init
                0x000148d8      0x1f8 networking/lib.a(ntpd.o)
 .text.recv_and_process_client_pkt
                0x00014ad0      0x200 networking/lib.a(ntpd.o)
 .text.step_time
                0x00014cd0      0x1a4 networking/lib.a(ntpd.o)
 .text.set_next.clone.0
                0x00014e74       0x34 networking/lib.a(ntpd.o)
 .text.select_and_cluster
                0x00014ea8      0x588 networking/lib.a(ntpd.o)
 .text.set_new_values.clone.2
                0x00015430       0x24 networking/lib.a(ntpd.o)
 .text.update_local_clock
                0x00015454      0x3cc networking/lib.a(ntpd.o)
 .text.recv_and_process_peer_pkt
                0x00015820      0x4b8 networking/lib.a(ntpd.o)
 .text.ntpd_main
                0x00015cd8      0x384 networking/lib.a(ntpd.o)
                0x00015cd8                ntpd_main
 .text.print_stats_and_exit
                0x0001605c      0x168 networking/lib.a(ping.o)
 .text.sendping4
                0x000161c4      0x1b0 networking/lib.a(ping.o)
 .text.ping_main
                0x00016374      0x490 networking/lib.a(ping.o)
                0x00016374                ping_main
 .text.kw_lookup
                0x00016804       0x84 networking/lib.a(route.o)
 .text.INET_setroute
                0x00016888      0x3dc networking/lib.a(route.o)
 .text.bb_displayroutes
                0x00016c64      0x21c networking/lib.a(route.o)
                0x00016c64                bb_displayroutes
 .text.route_main
                0x00016e80      0x10c networking/lib.a(route.o)
                0x00016e80                route_main
 .text.sanitize_string
                0x00016f8c       0x20 networking/lib.a(wget.o)
 .text.open_socket
                0x00016fac       0x2c networking/lib.a(wget.o)
 .text.base64enc_512
                0x00016fd8       0x40 networking/lib.a(wget.o)
 .text.parse_url
                0x00017018      0x188 networking/lib.a(wget.o)
 .text.progress_meter
                0x000171a0       0xb0 networking/lib.a(wget.o)
 .text.ftpcmd   0x00017250       0xbc networking/lib.a(wget.o)
 .text.gethdr.clone.0
                0x0001730c      0x110 networking/lib.a(wget.o)
 .text.safe_fgets.clone.1
                0x0001741c       0x64 networking/lib.a(wget.o)
 .text.retrieve_file_data
                0x00017480      0x248 networking/lib.a(wget.o)
 .text.wget_main
                0x000176c8      0x954 networking/lib.a(wget.o)
                0x000176c8                wget_main
 .text.alloc_dhcp_option
                0x0001801c       0x54 networking/udhcp/lib.a(dhcpc.o)
 .text.init_packet
                0x00018070       0x5c networking/udhcp/lib.a(dhcpc.o)
 .text.add_client_options
                0x000180cc      0x120 networking/udhcp/lib.a(dhcpc.o)
 .text.raw_bcast_from_client_config_ifindex
                0x000181ec       0x44 networking/udhcp/lib.a(dhcpc.o)
 .text.send_discover
                0x00018230       0x64 networking/udhcp/lib.a(dhcpc.o)
 .text.send_select
                0x00018294       0x78 networking/udhcp/lib.a(dhcpc.o)
 .text.send_decline
                0x0001830c       0x64 networking/udhcp/lib.a(dhcpc.o)
 .text.send_renew
                0x00018370       0x84 networking/udhcp/lib.a(dhcpc.o)
 .text.send_release
                0x000183f4       0x70 networking/udhcp/lib.a(dhcpc.o)
 .text.udhcp_recv_raw_packet
                0x00018464      0x288 networking/udhcp/lib.a(dhcpc.o)
 .text.client_background
                0x000186ec       0x34 networking/udhcp/lib.a(dhcpc.o)
 .text.sprint_nip
                0x00018720       0x3c networking/udhcp/lib.a(dhcpc.o)
 .text.change_listen_mode
                0x0001875c      0x1c8 networking/udhcp/lib.a(dhcpc.o)
 .text.xmalloc_optname_optval.clone.0
                0x00018924      0x324 networking/udhcp/lib.a(dhcpc.o)
 .text.udhcp_run_script
                0x00018c48      0x2fc networking/udhcp/lib.a(dhcpc.o)
 .text.perform_release
                0x00018f44       0x98 networking/udhcp/lib.a(dhcpc.o)
 .text.udhcpc_main
                0x00018fdc      0xb1c networking/udhcp/lib.a(dhcpc.o)
                0x00018fdc                udhcpc_main
 .text.dname_dec
                0x00019af8      0x15c networking/udhcp/lib.a(domain_codec.o)
                0x00019af8                dname_dec
 .text.dname_enc
                0x00019c54      0x244 networking/udhcp/lib.a(domain_codec.o)
                0x00019c54                dname_enc
 .text.udhcp_init_header
                0x00019e98       0x88 networking/udhcp/lib.a(packet.o)
                0x00019e98                udhcp_init_header
 .text.udhcp_dump_packet
                0x00019f20       0xfc networking/udhcp/lib.a(packet.o)
                0x00019f20                udhcp_dump_packet
 .text.udhcp_recv_kernel_packet
                0x0001a01c      0x13c networking/udhcp/lib.a(packet.o)
                0x0001a01c                udhcp_recv_kernel_packet
 .text.udhcp_checksum
                0x0001a158       0x64 networking/udhcp/lib.a(packet.o)
                0x0001a158                udhcp_checksum
 .text.udhcp_send_raw_packet
                0x0001a1bc      0x234 networking/udhcp/lib.a(packet.o)
                0x0001a1bc                udhcp_send_raw_packet
 .text.udhcp_send_kernel_packet
                0x0001a3f0      0x144 networking/udhcp/lib.a(packet.o)
                0x0001a3f0                udhcp_send_kernel_packet
 .text.signal_handler
                0x0001a534       0x38 networking/udhcp/lib.a(signalpipe.o)
 .text.udhcp_sp_setup
                0x0001a56c       0x40 networking/udhcp/lib.a(signalpipe.o)
                0x0001a56c                udhcp_sp_setup
 .text.udhcp_sp_fd_set
                0x0001a5ac       0x84 networking/udhcp/lib.a(signalpipe.o)
                0x0001a5ac                udhcp_sp_fd_set
 .text.udhcp_sp_read
                0x0001a630       0x48 networking/udhcp/lib.a(signalpipe.o)
                0x0001a630                udhcp_sp_read
 .text.udhcp_read_interface
                0x0001a678      0x1ac networking/udhcp/lib.a(socket.o)
                0x0001a678                udhcp_read_interface
 .text.udhcp_listen_socket
                0x0001a824       0xc4 networking/udhcp/lib.a(socket.o)
                0x0001a824                udhcp_listen_socket
 .text.arpping  0x0001a8e8      0x234 networking/udhcp/lib.a(arpping.o)
                0x0001a8e8                arpping
 .text.log_option
                0x0001ab1c       0x60 networking/udhcp/lib.a(common.o)
 .text.allocate_tempopt_if_needed.clone.0
                0x0001ab7c       0x70 networking/udhcp/lib.a(common.o)
 .text.udhcp_option_idx
                0x0001abec       0x70 networking/udhcp/lib.a(common.o)
                0x0001abec                udhcp_option_idx
 .text.udhcp_get_option
                0x0001ac5c      0x108 networking/udhcp/lib.a(common.o)
                0x0001ac5c                udhcp_get_option
 .text.udhcp_end_option
                0x0001ad64       0x34 networking/udhcp/lib.a(common.o)
                0x0001ad64                udhcp_end_option
 .text.udhcp_add_binary_option
                0x0001ad98       0x78 networking/udhcp/lib.a(common.o)
                0x0001ad98                udhcp_add_binary_option
 .text.udhcp_add_simple_option
                0x0001ae10       0x88 networking/udhcp/lib.a(common.o)
                0x0001ae10                udhcp_add_simple_option
 .text.udhcp_find_option
                0x0001ae98       0x34 networking/udhcp/lib.a(common.o)
                0x0001ae98                udhcp_find_option
 .text.attach_option
                0x0001aecc      0x1f0 networking/udhcp/lib.a(common.o)
 .text.udhcp_str2nip
                0x0001b0bc       0x34 networking/udhcp/lib.a(common.o)
                0x0001b0bc                udhcp_str2nip
 .text.udhcp_str2optset
                0x0001b0f0      0x228 networking/udhcp/lib.a(common.o)
                0x0001b0f0                udhcp_str2optset
 .text.kill_main
                0x0001b318      0x2dc procps/lib.a(kill.o)
                0x0001b318                kill_main
 .text.pidof_main
                0x0001b5f4       0x90 procps/lib.a(pidof.o)
                0x0001b5f4                pidof_main
 .text.ps_main  0x0001b684       0xc4 procps/lib.a(ps.o)
                0x0001b684                ps_main
 .text.isdigit_str9
                0x0001b748       0x30 shell/lib.a(ash.o)
 .text.var_end  0x0001b778       0x28 shell/lib.a(ash.o)
 .text.stunalloc
                0x0001b7a0       0x28 shell/lib.a(ash.o)
 .text.setstackmark
                0x0001b7c8       0x34 shell/lib.a(ash.o)
 .text.prefix   0x0001b7fc       0x28 shell/lib.a(ash.o)
 .text.is_number
                0x0001b824       0x34 shell/lib.a(ash.o)
 .text.varcmp   0x0001b858       0x48 shell/lib.a(ash.o)
 .text.hashvar  0x0001b8a0       0x48 shell/lib.a(ash.o)
 .text.vpcmp    0x0001b8e8        0xc shell/lib.a(ash.o)
 .text.findvar  0x0001b8f4       0x3c shell/lib.a(ash.o)
 .text.lookupvar
                0x0001b930       0x40 shell/lib.a(ash.o)
 .text.bltinlookup
                0x0001b970       0x54 shell/lib.a(ash.o)
 .text.setprompt_if
                0x0001b9c4       0x74 shell/lib.a(ash.o)
 .text.set_curjob
                0x0001ba38       0x70 shell/lib.a(ash.o)
 .text.jobno    0x0001baa8       0x28 shell/lib.a(ash.o)
 .text.getstatus
                0x0001bad0       0x88 shell/lib.a(ash.o)
 .text.need_to_remember
                0x0001bb58       0x40 shell/lib.a(ash.o)
 .text.is_hidden_fd
                0x0001bb98       0x7c shell/lib.a(ash.o)
 .text.esclen   0x0001bc14       0x28 shell/lib.a(ash.o)
 .text.falsecmd
                0x0001bc3c        0x8 shell/lib.a(ash.o)
 .text.truecmd  0x0001bc44        0x8 shell/lib.a(ash.o)
 .text.bltincmd
                0x0001bc4c       0x10 shell/lib.a(ash.o)
 .text.pungetc  0x0001bc5c       0x28 shell/lib.a(ash.o)
 .text.raise_exception
                0x0001bc84       0x2c shell/lib.a(ash.o)
 .text.calcsize
                0x0001bcb0      0x12c shell/lib.a(ash.o)
 .text.sizenodelist
                0x0001bddc       0x38 shell/lib.a(ash.o)
 .text.SIT      0x0001be14       0x9c shell/lib.a(ash.o)
 .text.pushfile
                0x0001beb0       0x2c shell/lib.a(ash.o)
 .text.goodname
                0x0001bedc       0x18 shell/lib.a(ash.o)
 .text.isassignment
                0x0001bef4       0x30 shell/lib.a(ash.o)
 .text.freealias
                0x0001bf24       0x44 shell/lib.a(ash.o)
 .text.freefunc
                0x0001bf68       0x24 shell/lib.a(ash.o)
 .text.freeparam
                0x0001bf8c       0x3c shell/lib.a(ash.o)
 .text.setparam
                0x0001bfc8       0x7c shell/lib.a(ash.o)
 .text.scanright
                0x0001c044       0x9c shell/lib.a(ash.o)
 .text.scanleft
                0x0001c0e0       0x78 shell/lib.a(ash.o)
 .text.__lookupalias
                0x0001c158       0x70 shell/lib.a(ash.o)
 .text.lookupalias
                0x0001c1c8       0x2c shell/lib.a(ash.o)
 .text.msort    0x0001c1f4       0xbc shell/lib.a(ash.o)
 .text.pstrcmp  0x0001c2b0        0xc shell/lib.a(ash.o)
 .text.ignoresig
                0x0001c2bc       0x40 shell/lib.a(ash.o)
 .text.setsignal
                0x0001c2fc      0x18c shell/lib.a(ash.o)
 .text.nodeckstrdup
                0x0001c488       0x3c shell/lib.a(ash.o)
 .text.copynode
                0x0001c4c4      0x15c shell/lib.a(ash.o)
 .text.copynodelist
                0x0001c620       0x50 shell/lib.a(ash.o)
 .text.cmdlookup
                0x0001c670       0xd0 shell/lib.a(ash.o)
 .text.errmsg   0x0001c740       0x18 shell/lib.a(ash.o)
 .text.tokname  0x0001c758       0x3c shell/lib.a(ash.o)
 .text.findkwd  0x0001c794       0x28 shell/lib.a(ash.o)
 .text.find_builtin
                0x0001c7bc       0x28 shell/lib.a(ash.o)
 .text.ulimitcmd
                0x0001c7e4        0x8 shell/lib.a(ash.o)
 .text.tryexec  0x0001c7ec       0xb0 shell/lib.a(ash.o)
 .text.echocmd  0x0001c89c        0x4 shell/lib.a(ash.o)
 .text.testcmd  0x0001c8a0        0x4 shell/lib.a(ash.o)
 .text.raise_interrupt
                0x0001c8a4       0x74 shell/lib.a(ash.o)
 .text.int_on   0x0001c918       0x3c shell/lib.a(ash.o)
 .text.recordregion
                0x0001c954       0x74 shell/lib.a(ash.o)
 .text.fmtstr   0x0001c9c8       0x4c shell/lib.a(ash.o)
 .text.sprint_status
                0x0001ca14       0xd4 shell/lib.a(ash.o)
 .text.removerecordregions
                0x0001cae8      0x110 shell/lib.a(ash.o)
 .text.freejob  0x0001cbf8       0x84 shell/lib.a(ash.o)
 .text.makejob  0x0001cc7c      0x1c0 shell/lib.a(ash.o)
 .text.unalias  0x0001ce3c       0x50 shell/lib.a(ash.o)
 .text.popstring
                0x0001ce8c       0xd0 shell/lib.a(ash.o)
 .text.popfile  0x0001cf5c       0x70 shell/lib.a(ash.o)
 .text.popallfiles
                0x0001cfcc       0x2c shell/lib.a(ash.o)
 .text.outstr   0x0001cff8       0x28 shell/lib.a(ash.o)
 .text.out1str  0x0001d020       0x10 shell/lib.a(ash.o)
 .text.flush_stdout_stderr
                0x0001d030       0x28 shell/lib.a(ash.o)
 .text.out2str  0x0001d058       0x1c shell/lib.a(ash.o)
 .text.stoppedjobs
                0x0001d074       0x64 shell/lib.a(ash.o)
 .text.pgetc    0x0001d0d8      0x240 shell/lib.a(ash.o)
 .text.pgetc_without_PEOA
                0x0001d318       0x1c shell/lib.a(ash.o)
 .text.dowait   0x0001d334      0x1a8 shell/lib.a(ash.o)
 .text.blocking_wait_with_raise_on_sig
                0x0001d4dc       0x3c shell/lib.a(ash.o)
 .text.popstackmark
                0x0001d518       0x7c shell/lib.a(ash.o)
 .text.setinputstring
                0x0001d594       0x58 shell/lib.a(ash.o)
 .text.pushstring
                0x0001d5ec       0xa0 shell/lib.a(ash.o)
 .text.delete_cmd_entry
                0x0001d68c       0x58 shell/lib.a(ash.o)
 .text.out1fmt  0x0001d6e4       0x48 shell/lib.a(ash.o)
 .text.timescmd
                0x0001d72c       0xb4 shell/lib.a(ash.o)
 .text.clearcmdentry
                0x0001d7e0       0x98 shell/lib.a(ash.o)
 .text.changepath
                0x0001d878      0x118 shell/lib.a(ash.o)
 .text.signal_handler
                0x0001d990       0x50 shell/lib.a(ash.o)
 .text.force_int_on
                0x0001d9e0       0x28 shell/lib.a(ash.o)
 .text.evalbltin.clone.1
                0x0001da08       0xec shell/lib.a(ash.o)
 .text.outcslow.clone.3
                0x0001daf4       0x3c shell/lib.a(ash.o)
 .text.showjob  0x0001db30      0x1f4 shell/lib.a(ash.o)
 .text.showjobs
                0x0001dd24       0x68 shell/lib.a(ash.o)
 .text.ash_vmsg
                0x0001dd8c       0xd0 shell/lib.a(ash.o)
 .text.ash_vmsg_and_raise
                0x0001de5c       0x20 shell/lib.a(ash.o)
 .text.ash_msg_and_raise_error
                0x0001de7c       0x1c shell/lib.a(ash.o)
 .text.varunset
                0x0001de98       0x68 shell/lib.a(ash.o)
 .text.setvareq
                0x0001df00      0x108 shell/lib.a(ash.o)
 .text.listsetvar
                0x0001e008       0x48 shell/lib.a(ash.o)
 .text.setvar   0x0001e050       0xe8 shell/lib.a(ash.o)
 .text.setvar2  0x0001e138        0x8 shell/lib.a(ash.o)
 .text.unsetvar
                0x0001e140       0xb4 shell/lib.a(ash.o)
 .text.setpwd   0x0001e1f4       0xf4 shell/lib.a(ash.o)
 .text.localcmd
                0x0001e2e8      0x128 shell/lib.a(ash.o)
 .text.number   0x0001e410       0x30 shell/lib.a(ash.o)
 .text.returncmd
                0x0001e440       0x44 shell/lib.a(ash.o)
 .text.exitcmd  0x0001e484       0x40 shell/lib.a(ash.o)
 .text.shiftcmd
                0x0001e4c4       0xa8 shell/lib.a(ash.o)
 .text.xtcsetpgrp
                0x0001e56c       0x1c shell/lib.a(ash.o)
 .text.waitforjob
                0x0001e588       0xa0 shell/lib.a(ash.o)
 .text.forkchild
                0x0001e628      0x2f0 shell/lib.a(ash.o)
 .text.copyfd   0x0001e918       0x5c shell/lib.a(ash.o)
 .text.popredir
                0x0001e974       0xe8 shell/lib.a(ash.o)
 .text.clearredir
                0x0001ea5c       0x3c shell/lib.a(ash.o)
 .text.ash_arith
                0x0001ea98       0x70 shell/lib.a(ash.o)
 .text.stalloc  0x0001eb08       0xac shell/lib.a(ash.o)
 .text.ststrdup
                0x0001ebb4       0x28 shell/lib.a(ash.o)
 .text.stzalloc
                0x0001ebdc       0x1c shell/lib.a(ash.o)
 .text.addfname
                0x0001ebf8       0x38 shell/lib.a(ash.o)
 .text.expmeta  0x0001ec30      0x278 shell/lib.a(ash.o)
 .text.makename
                0x0001eea8       0x38 shell/lib.a(ash.o)
 .text.growstackblock
                0x0001eee0       0xfc shell/lib.a(ash.o)
 .text.makestrspace
                0x0001efdc       0x40 shell/lib.a(ash.o)
 .text.memtodest
                0x0001f01c       0x80 shell/lib.a(ash.o)
 .text.stack_nputstr
                0x0001f09c       0x2c shell/lib.a(ash.o)
 .text.stack_putstr
                0x0001f0c8       0x24 shell/lib.a(ash.o)
 .text.cvtnum   0x0001f0ec       0x48 shell/lib.a(ash.o)
 .text.cmdputs  0x0001f134      0x204 shell/lib.a(ash.o)
 .text.cmdtxt   0x0001f338      0x324 shell/lib.a(ash.o)
 .text.cmdlist  0x0001f65c       0x58 shell/lib.a(ash.o)
 .text.single_quote
                0x0001f6b4       0xcc shell/lib.a(ash.o)
 .text.printalias
                0x0001f780       0x28 shell/lib.a(ash.o)
 .text.aliascmd
                0x0001f7a8      0x164 shell/lib.a(ash.o)
 .text.rmescapes
                0x0001f90c      0x14c shell/lib.a(ash.o)
 .text.preglob  0x0001fa58       0x14 shell/lib.a(ash.o)
 .text.growstackstr
                0x0001fa6c       0x58 shell/lib.a(ash.o)
 .text._STPUTC  0x0001fac4       0x30 shell/lib.a(ash.o)
 .text.varvalue
                0x0001faf4      0x364 shell/lib.a(ash.o)
 .text.listvars
                0x0001fe58       0xa8 shell/lib.a(ash.o)
 .text.showvars
                0x0001ff00       0xc8 shell/lib.a(ash.o)
 .text.path_advance
                0x0001ffc8      0x108 shell/lib.a(ash.o)
 .text.forkshell
                0x000200d0      0x170 shell/lib.a(ash.o)
 .text.raise_error_syntax
                0x00020240       0x14 shell/lib.a(ash.o)
 .text.fixredir
                0x00020254       0x84 shell/lib.a(ash.o)
 .text.raise_error_unexpected_syntax
                0x000202d8       0x6c shell/lib.a(ash.o)
 .text.nextopt  0x00020344      0x11c shell/lib.a(ash.o)
 .text.cdopt    0x00020460       0x38 shell/lib.a(ash.o)
 .text.pwdcmd   0x00020498       0x58 shell/lib.a(ash.o)
 .text.unsetcmd
                0x000204f0       0x8c shell/lib.a(ash.o)
 .text.unaliascmd
                0x0002057c       0xf8 shell/lib.a(ash.o)
 .text.exportcmd
                0x00020674       0xc0 shell/lib.a(ash.o)
 .text.getjob   0x00020734      0x18c shell/lib.a(ash.o)
 .text.waitcmd  0x000208c0      0x128 shell/lib.a(ash.o)
 .text.killcmd  0x000209e8       0x8c shell/lib.a(ash.o)
 .text.jobscmd  0x00020a74       0x98 shell/lib.a(ash.o)
 .text.fg_bgcmd
                0x00020b0c      0x178 shell/lib.a(ash.o)
 .text.readcmd  0x00020c84       0xe8 shell/lib.a(ash.o)
 .text.letcmd   0x00020d6c       0x44 shell/lib.a(ash.o)
 .text.breakcmd
                0x00020db0       0x8c shell/lib.a(ash.o)
 .text.umaskcmd
                0x00020e3c      0x1c4 shell/lib.a(ash.o)
 .text.setinputfile
                0x00021000       0xf4 shell/lib.a(ash.o)
 .text.cdcmd    0x000210f4      0x3b4 shell/lib.a(ash.o)
 .text.ash_msg_and_raise
                0x000214a8       0x18 shell/lib.a(ash.o)
 .text.shellexec
                0x000214c0      0x11c shell/lib.a(ash.o)
 .text.ash_msg  0x000215dc       0x24 shell/lib.a(ash.o)
 .text.setjobctl
                0x00021600      0x1a8 shell/lib.a(ash.o)
 .text.optschanged
                0x000217a8       0x5c shell/lib.a(ash.o)
 .text.execcmd  0x00021804       0x58 shell/lib.a(ash.o)
 .text.options  0x0002185c      0x2c8 shell/lib.a(ash.o)
 .text.setcmd   0x00021b24       0x80 shell/lib.a(ash.o)
 .text.trapcmd  0x00021ba4      0x144 shell/lib.a(ash.o)
 .text.readtoken1
                0x00021ce8     0x103c shell/lib.a(ash.o)
 .text.parseheredoc
                0x00022d24       0x9c shell/lib.a(ash.o)
 .text.xxreadtoken
                0x00022dc0      0x1b8 shell/lib.a(ash.o)
 .text.readtoken
                0x00022f78       0xe4 shell/lib.a(ash.o)
 .text.parsefname
                0x0002305c      0x14c shell/lib.a(ash.o)
 .text.peektoken
                0x000231a8       0x2c shell/lib.a(ash.o)
 .text.parse_command
                0x000231d4      0x74c shell/lib.a(ash.o)
 .text.pipeline
                0x00023920       0xe8 shell/lib.a(ash.o)
 .text.list     0x00023a08      0x1ac shell/lib.a(ash.o)
 .text.parsecmd
                0x00023bb4       0x64 shell/lib.a(ash.o)
 .text.evalstring
                0x00023c18       0x70 shell/lib.a(ash.o)
 .text.evaltree
                0x00023c88      0x448 shell/lib.a(ash.o)
 .text.argstr   0x000240d0      0x614 shell/lib.a(ash.o)
 .text.expandarg
                0x000246e4      0x46c shell/lib.a(ash.o)
 .text.expredir
                0x00024b50       0xec shell/lib.a(ash.o)
 .text.redirect
                0x00024c3c      0x598 shell/lib.a(ash.o)
 .text.redirectsafe
                0x000251d4       0xbc shell/lib.a(ash.o)
 .text.evalsubshell
                0x00025290       0xd0 shell/lib.a(ash.o)
 .text.subevalvar
                0x00025360      0x5dc shell/lib.a(ash.o)
 .text.evalvar  0x0002593c      0x2e8 shell/lib.a(ash.o)
 .text.evalcase
                0x00025c24      0x160 shell/lib.a(ash.o)
 .text.evalloop
                0x00025d84      0x108 shell/lib.a(ash.o)
 .text.evalfor  0x00025e8c      0x144 shell/lib.a(ash.o)
 .text.evalfun  0x00025fd0      0x20c shell/lib.a(ash.o)
 .text.evalcmd  0x000261dc       0x8c shell/lib.a(ash.o)
 .text.exitshell
                0x00026268       0x90 shell/lib.a(ash.o)
 .text.cmdloop  0x000262f8      0x120 shell/lib.a(ash.o)
 .text.find_command
                0x00026418      0x408 shell/lib.a(ash.o)
 .text.typecmd  0x00026820      0x234 shell/lib.a(ash.o)
 .text.hashcmd  0x00026a54      0x194 shell/lib.a(ash.o)
 .text.evalpipe
                0x00026be8      0x1c4 shell/lib.a(ash.o)
 .text.evalcommand
                0x00026dac      0x500 shell/lib.a(ash.o)
 .text.dotcmd   0x000272ac      0x168 shell/lib.a(ash.o)
 .text.read_profile
                0x00027414       0x34 shell/lib.a(ash.o)
 .text.ash_main
                0x00027448      0x644 shell/lib.a(ash.o)
                0x00027448                ash_main
 .text.endofname
                0x00027a8c       0x60 shell/lib.a(math.o)
                0x00027a8c                endofname
 .text.evaluate_string
                0x00027aec      0x334 shell/lib.a(math.o)
 .text.arith_lookup_val
                0x00027e20       0xa4 shell/lib.a(math.o)
 .text.arith_apply
                0x00027ec4      0x490 shell/lib.a(math.o)
 .text.arith    0x00028354       0x10 shell/lib.a(math.o)
                0x00028354                arith
 .text.printlim.clone.0
                0x00028364       0x60 shell/lib.a(shell_common.o)
 .text.is_well_formed_var_name
                0x000283c4       0x64 shell/lib.a(shell_common.o)
                0x000283c4                is_well_formed_var_name
 .text.shell_builtin_read
                0x00028428      0x4c8 shell/lib.a(shell_common.o)
                0x00028428                shell_builtin_read
 .text.shell_builtin_ulimit
                0x000288f0      0x208 shell/lib.a(shell_common.o)
                0x000288f0                shell_builtin_ulimit
 .text.klogd_setloglevel
                0x00028af8       0x40 sysklogd/lib.a(klogd.o)
 .text.klogd_main
                0x00028b38      0x21c sysklogd/lib.a(klogd.o)
                0x00028b38                klogd_main
 .text.find_by_val
                0x00028d54       0x30 sysklogd/lib.a(syslogd_and_logger.o)
 .text.decode   0x00028d84       0x54 sysklogd/lib.a(syslogd_and_logger.o)
 .text.find_by_name
                0x00028dd8       0x3c sysklogd/lib.a(syslogd_and_logger.o)
 .text.create_socket
                0x00028e14       0xa4 sysklogd/lib.a(syslogd_and_logger.o)
 .text.log_locally
                0x00028eb8      0x204 sysklogd/lib.a(syslogd_and_logger.o)
 .text.timestamp_and_log
                0x000290bc      0x1e0 sysklogd/lib.a(syslogd_and_logger.o)
 .text.timestamp_and_log_internal
                0x0002929c       0x10 sysklogd/lib.a(syslogd_and_logger.o)
 .text.syslogd_main
                0x000292ac      0x5bc sysklogd/lib.a(syslogd_and_logger.o)
                0x000292ac                syslogd_main
 .text.logger_main
                0x00029868      0x1ec sysklogd/lib.a(syslogd_and_logger.o)
                0x00029868                logger_main
 .text.dmesg_main
                0x00029a54      0x138 util-linux/lib.a(dmesg.o)
                0x00029a54                dmesg_main
 .text.fdformat_main
                0x00029b8c      0x270 util-linux/lib.a(fdformat.o)
                0x00029b8c                fdformat_main
 .text.valid_part_table_flag
                0x00029dfc       0x28 util-linux/lib.a(fdisk.o)
 .text.linear2chs
                0x00029e24       0x70 util-linux/lib.a(fdisk.o)
 .text.close_dev_fd
                0x00029e94       0x20 util-linux/lib.a(fdisk.o)
 .text.fdisk_fatal
                0x00029eb4       0x34 util-linux/lib.a(fdisk.o)
 .text.get_start_sect
                0x00029ee8       0x1c util-linux/lib.a(fdisk.o)
 .text.get_partition_start_from_dev_start
                0x00029f04       0x18 util-linux/lib.a(fdisk.o)
 .text.get_nr_sects
                0x00029f1c       0x1c util-linux/lib.a(fdisk.o)
 .text.list_disk_geometry
                0x00029f38      0x128 util-linux/lib.a(fdisk.o)
 .text.open_list_and_close
                0x0002a060      0xd6c util-linux/lib.a(fdisk.o)
 .text.list_devs_in_proc_partititons
                0x0002adcc       0xc8 util-linux/lib.a(fdisk.o)
 .text.fdisk_main
                0x0002ae94      0x140 util-linux/lib.a(fdisk.o)
                0x0002ae94                fdisk_main
 .text.normalize
                0x0002afd4      0x110 util-linux/lib.a(getopt.o)
 .text.generate_output
                0x0002b0e4      0x1c4 util-linux/lib.a(getopt.o)
 .text.getopt_main
                0x0002b2a8      0x330 util-linux/lib.a(getopt.o)
                0x0002b2a8                getopt_main
 .text.print_perms
                0x0002b5d8       0xbc util-linux/lib.a(ipcs.o)
 .text.do_shm   0x0002b694      0x420 util-linux/lib.a(ipcs.o)
 .text.do_sem   0x0002bab4      0x32c util-linux/lib.a(ipcs.o)
 .text.do_msg   0x0002bde0      0x3c4 util-linux/lib.a(ipcs.o)
 .text.ipcs_main
                0x0002c1a4      0x494 util-linux/lib.a(ipcs.o)
                0x0002c1a4                ipcs_main
 .text.losetup_main
                0x0002c638      0x18c util-linux/lib.a(losetup.o)
                0x0002c638                losetup_main
 .text.dirAction
                0x0002c7c4       0x60 util-linux/lib.a(mdev.o)
 .text.make_device
                0x0002c824      0x754 util-linux/lib.a(mdev.o)
 .text.fileAction
                0x0002cf78       0x6c util-linux/lib.a(mdev.o)
 .text.mdev_main
                0x0002cfe4      0x334 util-linux/lib.a(mdev.o)
                0x0002cfe4                mdev_main
 .text.div_roundup
                0x0002d318       0x20 util-linux/lib.a(mkfs_ext2.o)
 .text.has_super
                0x0002d338       0x28 util-linux/lib.a(mkfs_ext2.o)
 .text.allocate
                0x0002d360       0x70 util-linux/lib.a(mkfs_ext2.o)
 .text.PUT      0x0002d3d0       0x44 util-linux/lib.a(mkfs_ext2.o)
 .text.mkfs_ext2_main
                0x0002d414      0xa50 util-linux/lib.a(mkfs_ext2.o)
                0x0002d414                mkfs_ext2_main
 .text.mkfs_reiser_main
                0x0002de64      0x53c util-linux/lib.a(mkfs_reiser.o)
                0x0002de64                mkfs_reiser_main
 .text.mkfs_vfat_main
                0x0002e3a0      0x730 util-linux/lib.a(mkfs_vfat.o)
                0x0002e3a0                mkfs_vfat_main
 .text.verbose_mount
                0x0002ead0       0x80 util-linux/lib.a(mount.o)
 .text.mount_it_now
                0x0002eb50       0xd0 util-linux/lib.a(mount.o)
 .text.error_msg_rpc
                0x0002ec20       0x5c util-linux/lib.a(mount.o)
 .text.parse_mount_options
                0x0002ec7c      0x100 util-linux/lib.a(mount.o)
 .text.append_mount_options
                0x0002ed7c       0xec util-linux/lib.a(mount.o)
 .text.nfs_strerror
                0x0002ee68       0x44 util-linux/lib.a(mount.o)
 .text.daemonize
                0x0002eeac       0x94 util-linux/lib.a(mount.o)
 .text.xdr_fhstatus
                0x0002ef40       0x40 util-linux/lib.a(mount.o)
 .text.xdr_mountres3
                0x0002ef80       0x70 util-linux/lib.a(mount.o)
 .text.xdr_dirpath
                0x0002eff0        0x8 util-linux/lib.a(mount.o)
 .text.nfsmount
                0x0002eff8      0xe9c util-linux/lib.a(mount.o)
 .text.singlemount
                0x0002fe94      0x3d4 util-linux/lib.a(mount.o)
 .text.mount_main
                0x00030268      0x564 util-linux/lib.a(mount.o)
                0x00030268                mount_main
 .text.swap_enable_disable
                0x000307cc       0x68 util-linux/lib.a(swaponoff.o)
 .text.swap_on_off_main
                0x00030834      0x150 util-linux/lib.a(swaponoff.o)
                0x00030834                swap_on_off_main
 .text.umount_main
                0x00030984      0x304 util-linux/lib.a(umount.o)
                0x00030984                umount_main
 .text.gnu_dev_major
                0x00030c88       0x14 archival/lib.a(tar.o)
 .text.gnu_dev_minor
                0x00030c9c       0x18 archival/lib.a(tar.o)
 .text.append_file_list_to_list
                0x00030cb4       0x7c archival/lib.a(tar.o)
 .text.writeTarFile
                0x00030d30       0xc8 archival/lib.a(tar.o)
 .text.putOctal
                0x00030df8       0x5c archival/lib.a(tar.o)
 .text.chksum_and_xwrite
                0x00030e54       0x70 archival/lib.a(tar.o)
 .text.writeLongname
                0x00030ec4       0xf8 archival/lib.a(tar.o)
 .text.writeTarHeader
                0x00030fbc      0x334 archival/lib.a(tar.o)
 .text.writeFileToTarball
                0x000312f0      0x2c8 archival/lib.a(tar.o)
 .text.tar_main
                0x000315b8      0x2a4 archival/lib.a(tar.o)
                0x000315b8                tar_main
 .text.data_extract_all
                0x0003185c      0x3e0 archival/libarchive/lib.a(data_extract_all.o)
                0x0003185c                data_extract_all
 .text.data_extract_to_stdout
                0x00031c3c       0x14 archival/libarchive/lib.a(data_extract_to_stdout.o)
                0x00031c3c                data_extract_to_stdout
 .text.data_skip
                0x00031c50       0x1c archival/libarchive/lib.a(data_skip.o)
                0x00031c50                data_skip
 .text.filter_accept_reject_list
                0x00031c6c       0x54 archival/libarchive/lib.a(filter_accept_reject_list.o)
                0x00031c6c                filter_accept_reject_list
 .text.find_list_entry
                0x00031cc0       0x3c archival/libarchive/lib.a(find_list_entry.o)
                0x00031cc0                find_list_entry
 .text.find_list_entry2
                0x00031cfc       0xac archival/libarchive/lib.a(find_list_entry.o)
                0x00031cfc                find_list_entry2
 .text.getOctal
                0x00031da8       0xa0 archival/libarchive/lib.a(get_header_tar.o)
 .text.get_header_tar
                0x00031e48      0x668 archival/libarchive/lib.a(get_header_tar.o)
                0x00031e48                get_header_tar
 .text.header_list
                0x000324b0        0x8 archival/libarchive/lib.a(header_list.o)
                0x000324b0                header_list
 .text.header_verbose_list
                0x000324b8       0xec archival/libarchive/lib.a(header_verbose_list.o)
                0x000324b8                header_verbose_list
 .text.init_handle
                0x000325a4       0x54 archival/libarchive/lib.a(init_handle.o)
                0x000325a4                init_handle
 .text.seek_by_jump
                0x000325f8       0x78 archival/libarchive/lib.a(seek_by_jump.o)
                0x000325f8                seek_by_jump
 .text.seek_by_read
                0x00032670       0x10 archival/libarchive/lib.a(seek_by_read.o)
                0x00032670                seek_by_read
 .text.data_align
                0x00032680       0x6c archival/libarchive/lib.a(data_align.o)
                0x00032680                data_align
 .text.filter_accept_all
                0x000326ec       0x14 archival/libarchive/lib.a(filter_accept_all.o)
                0x000326ec                filter_accept_all
 .text.header_skip
                0x00032700        0x4 archival/libarchive/lib.a(header_skip.o)
                0x00032700                header_skip
 .text.basename_main
                0x00032704       0x88 coreutils/lib.a(basename.o)
                0x00032704                basename_main
 .text.bb_cat   0x0003278c       0x74 coreutils/lib.a(cat.o)
                0x0003278c                bb_cat
 .text.cat_main
                0x00032800       0x30 coreutils/lib.a(cat.o)
                0x00032800                cat_main
 .text.chgrp_main
                0x00032830       0x54 coreutils/lib.a(chgrp.o)
                0x00032830                chgrp_main
 .text.fileAction
                0x00032884       0x90 coreutils/lib.a(chmod.o)
 .text.chmod_main
                0x00032914       0xe8 coreutils/lib.a(chmod.o)
                0x00032914                chmod_main
 .text.fileAction
                0x000329fc       0x54 coreutils/lib.a(chown.o)
 .text.chown_main
                0x00032a50       0xc8 coreutils/lib.a(chown.o)
                0x00032a50                chown_main
 .text.chroot_main
                0x00032b18       0x70 coreutils/lib.a(chroot.o)
                0x00032b18                chroot_main
 .text.cp_main  0x00032b88      0x144 coreutils/lib.a(cp.o)
                0x00032b88                cp_main
 .text.cmpfunc  0x00032ccc       0x10 coreutils/lib.a(cut.o)
 .text.cut_main
                0x00032cdc      0x4c4 coreutils/lib.a(cut.o)
                0x00032cdc                cut_main
 .text.maybe_set_utc
                0x000331a0       0x14 coreutils/lib.a(date.o)
 .text.date_main
                0x000331b4      0x378 coreutils/lib.a(date.o)
                0x000331b4                date_main
 .text.write_and_stats
                0x0003352c       0xb0 coreutils/lib.a(dd.o)
 .text.dd_output_status
                0x000335dc       0xfc coreutils/lib.a(dd.o)
 .text.dd_main  0x000336d8      0x4d0 coreutils/lib.a(dd.o)
                0x000336d8                dd_main
 .text.echo_main
                0x00033ba8      0x15c coreutils/lib.a(echo.o)
                0x00033ba8                echo_main
 .text.env_main
                0x00033d04      0x124 coreutils/lib.a(env.o)
                0x00033d04                env_main
 .text.null     0x00033e28       0x44 coreutils/lib.a(expr.o)
 .text.tostring
                0x00033e6c       0x34 coreutils/lib.a(expr.o)
 .text.int_value
                0x00033ea0       0x18 coreutils/lib.a(expr.o)
 .text.str_value
                0x00033eb8       0x30 coreutils/lib.a(expr.o)
 .text.docolon  0x00033ee8      0x114 coreutils/lib.a(expr.o)
 .text.toarith  0x00033ffc       0x60 coreutils/lib.a(expr.o)
 .text.arithmetic_common
                0x0003405c       0x94 coreutils/lib.a(expr.o)
 .text.freev    0x000340f0       0x28 coreutils/lib.a(expr.o)
 .text.nextarg  0x00034118       0x44 coreutils/lib.a(expr.o)
 .text.eval     0x0003415c       0x70 coreutils/lib.a(expr.o)
 .text.eval6    0x000341cc      0x264 coreutils/lib.a(expr.o)
 .text.eval5    0x00034430       0x6c coreutils/lib.a(expr.o)
 .text.eval4    0x0003449c       0xa0 coreutils/lib.a(expr.o)
 .text.eval3    0x0003453c       0x8c coreutils/lib.a(expr.o)
 .text.eval2    0x000345c8      0x1b0 coreutils/lib.a(expr.o)
 .text.eval1    0x00034778       0x90 coreutils/lib.a(expr.o)
 .text.expr_main
                0x00034808       0x90 coreutils/lib.a(expr.o)
                0x00034808                expr_main
 .text.false_main
                0x00034898        0x8 coreutils/lib.a(false.o)
                0x00034898                false_main
 .text.fsync_main
                0x000348a0       0xac coreutils/lib.a(fsync.o)
                0x000348a0                fsync_main
 .text.head_main
                0x0003494c      0x15c coreutils/lib.a(head.o)
                0x0003494c                head_main
 .text.hostid_main
                0x00034aa8       0x30 coreutils/lib.a(hostid.o)
                0x00034aa8                hostid_main
 .text.install_main
                0x00034ad8      0x2ac coreutils/lib.a(install.o)
                0x00034ad8                install_main
 .text.ln_main  0x00034d84      0x220 coreutils/lib.a(ln.o)
                0x00034d84                ln_main
 .text.logname_main
                0x00034fa4       0x50 coreutils/lib.a(logname.o)
                0x00034fa4                logname_main
 .text.append_char
                0x00034ff4       0x60 coreutils/lib.a(ls.o)
 .text.count_dirs
                0x00035054       0x84 coreutils/lib.a(ls.o)
 .text.my_stat  0x000350d8       0xb0 coreutils/lib.a(ls.o)
 .text.dnalloc  0x00035188       0x18 coreutils/lib.a(ls.o)
 .text.splitdnarray
                0x000351a0       0xa4 coreutils/lib.a(ls.o)
 .text.print_name
                0x00035244       0xa0 coreutils/lib.a(ls.o)
 .text.list_single
                0x000352e4      0x39c coreutils/lib.a(ls.o)
 .text.showfiles
                0x00035680      0x1d8 coreutils/lib.a(ls.o)
 .text.dnsort   0x00035858       0x10 coreutils/lib.a(ls.o)
 .text.sortcmp  0x00035868       0xe0 coreutils/lib.a(ls.o)
 .text.showdirs
                0x00035948      0x1fc coreutils/lib.a(ls.o)
 .text.ls_main  0x00035b44      0x30c coreutils/lib.a(ls.o)
                0x00035b44                ls_main
 .text.mkdir_main
                0x00035e50       0xbc coreutils/lib.a(mkdir.o)
                0x00035e50                mkdir_main
 .text.mknod_main
                0x00035f0c       0xec coreutils/lib.a(mknod.o)
                0x00035f0c                mknod_main
 .text.mv_main  0x00035ff8      0x24c coreutils/lib.a(mv.o)
                0x00035ff8                mv_main
 .text.printenv_main
                0x00036244       0x6c coreutils/lib.a(printenv.o)
                0x00036244                printenv_main
 .text.get_width_prec
                0x000362b0       0x44 coreutils/lib.a(printf.o)
 .text.multiconvert
                0x000362f4       0x70 coreutils/lib.a(printf.o)
 .text.print_direc
                0x00036364      0x264 coreutils/lib.a(printf.o)
 .text.conv_strtoll
                0x000365c8       0x1c coreutils/lib.a(printf.o)
 .text.conv_strtoull
                0x000365e4       0x4c coreutils/lib.a(printf.o)
 .text.conv_strtod
                0x00036630       0x48 coreutils/lib.a(printf.o)
 .text.printf_main
                0x00036678      0x3b8 coreutils/lib.a(printf.o)
                0x00036678                printf_main
 .text.pwd_main
                0x00036a30       0x30 coreutils/lib.a(pwd.o)
                0x00036a30                pwd_main
 .text.rm_main  0x00036a60       0xe8 coreutils/lib.a(rm.o)
                0x00036a60                rm_main
 .text.sleep_main
                0x00036b48       0x24 coreutils/lib.a(sleep.o)
                0x00036b48                sleep_main
 .text.str2u    0x00036b6c       0x3c coreutils/lib.a(sort.o)
 .text.add_key  0x00036ba8       0x34 coreutils/lib.a(sort.o)
 .text.get_key  0x00036bdc      0x298 coreutils/lib.a(sort.o)
 .text.compare_keys
                0x00036e74      0x3c0 coreutils/lib.a(sort.o)
 .text.sort_main
                0x00037234      0x420 coreutils/lib.a(sort.o)
                0x00037234                sort_main
 .text.mode_type_flag
                0x00037654       0x1c coreutils/lib.a(stty.o)
 .text.set_mode
                0x00037670      0x414 coreutils/lib.a(stty.o)
 .text.find_mode
                0x00037a84       0x2c coreutils/lib.a(stty.o)
 .text.find_control
                0x00037ab0       0x2c coreutils/lib.a(stty.o)
 .text.find_param
                0x00037adc       0x30 coreutils/lib.a(stty.o)
 .text.set_control_char_or_die
                0x00037b0c       0xc8 coreutils/lib.a(stty.o)
 .text.perror_on_device
                0x00037bd4       0x10 coreutils/lib.a(stty.o)
 .text.wrapf    0x00037be4       0xd0 coreutils/lib.a(stty.o)
 .text.display_window_size
                0x00037cb4       0x84 coreutils/lib.a(stty.o)
 .text.newline  0x00037d38       0x20 coreutils/lib.a(stty.o)
 .text.set_window_size
                0x00037d58       0x94 coreutils/lib.a(stty.o)
 .text.display_speed
                0x00037dec       0x74 coreutils/lib.a(stty.o)
 .text.recover_mode
                0x00037e60       0xd0 coreutils/lib.a(stty.o)
 .text.set_speed_or_die
                0x00037f30       0x48 coreutils/lib.a(stty.o)
 .text.perror_on_device_and_die
                0x00037f78       0x14 coreutils/lib.a(stty.o)
 .text.display_recoverable
                0x00037f8c       0x54 coreutils/lib.a(stty.o)
 .text.do_display
                0x00037fe0      0x20c coreutils/lib.a(stty.o)
 .text.stty_main
                0x000381ec      0x534 coreutils/lib.a(stty.o)
                0x000381ec                stty_main
 .text.sync_main
                0x00038720       0x10 coreutils/lib.a(sync.o)
                0x00038720                sync_main
 .text.check_operator
                0x00038730       0x54 coreutils/lib.a(test.o)
 .text.syntax   0x00038784       0x54 coreutils/lib.a(test.o)
 .text.getn     0x000387d8       0x84 coreutils/lib.a(test.o)
 .text.binop    0x0003885c      0x25c coreutils/lib.a(test.o)
 .text.nexpr    0x00038ab8      0x40c coreutils/lib.a(test.o)
 .text.aexpr    0x00038ec4       0x80 coreutils/lib.a(test.o)
 .text.oexpr    0x00038f44       0x80 coreutils/lib.a(test.o)
 .text.test_main
                0x00038fc4      0x140 coreutils/lib.a(test.o)
                0x00038fc4                test_main
 .text.touch_main
                0x00039104       0xbc coreutils/lib.a(touch.o)
                0x00039104                touch_main
 .text.complement
                0x000391c0       0x68 coreutils/lib.a(tr.o)
 .text.expand   0x00039228      0x364 coreutils/lib.a(tr.o)
 .text.tr_main  0x0003958c      0x224 coreutils/lib.a(tr.o)
                0x0003958c                tr_main
 .text.true_main
                0x000397b0        0x8 coreutils/lib.a(true.o)
                0x000397b0                true_main
 .text.tty_main
                0x000397b8       0x40 coreutils/lib.a(tty.o)
                0x000397b8                tty_main
 .text.uniq_main
                0x000397f8      0x200 coreutils/lib.a(uniq.o)
                0x000397f8                uniq_main
 .text.usleep_main
                0x000399f8       0x2c coreutils/lib.a(usleep.o)
                0x000399f8                usleep_main
 .text.read_stduu
                0x00039a24      0x124 coreutils/lib.a(uudecode.o)
 .text.uudecode_main
                0x00039b48      0x18c coreutils/lib.a(uudecode.o)
                0x00039b48                uudecode_main
 .text.uuencode_main
                0x00039cd4      0x194 coreutils/lib.a(uuencode.o)
                0x00039cd4                uuencode_main
 .text.wc_main  0x00039e68      0x2f0 coreutils/lib.a(wc.o)
                0x00039e68                wc_main
 .text.yes_main
                0x0003a158       0x74 coreutils/lib.a(yes.o)
                0x0003a158                yes_main
 .text.cp_mv_stat2
                0x0003a1cc       0x68 coreutils/libcoreutils/lib.a(cp_mv_stat.o)
                0x0003a1cc                cp_mv_stat2
 .text.cp_mv_stat
                0x0003a234        0xc coreutils/libcoreutils/lib.a(cp_mv_stat.o)
                0x0003a234                cp_mv_stat
 .text.getopt_mk_fifo_nod
                0x0003a240       0x58 coreutils/libcoreutils/lib.a(getopt_mk_fifo_nod.o)
                0x0003a240                getopt_mk_fifo_nod
 .text.check    0x0003a298      0x16c debianutils/lib.a(start_stop_daemon.o)
 .text.start_stop_daemon_main
                0x0003a404      0x4c0 debianutils/lib.a(start_stop_daemon.o)
                0x0003a404                start_stop_daemon_main
 .text.line_compar
                0x0003a8c4       0x20 editors/lib.a(diff.o)
 .text.print_status
                0x0003a8e4       0x6c editors/lib.a(diff.o)
 .text.add_to_dirlist
                0x0003a950       0x60 editors/lib.a(diff.o)
 .text.skip_dir
                0x0003a9b0       0xbc editors/lib.a(diff.o)
 .text.seek_ft  0x0003aa6c       0x38 editors/lib.a(diff.o)
 .text.read_token
                0x0003aaa4       0xf0 editors/lib.a(diff.o)
 .text.create_J
                0x0003ab94      0x848 editors/lib.a(diff.o)
 .text.fetch    0x0003b3dc      0x13c editors/lib.a(diff.o)
 .text.diffreg  0x0003b518      0x608 editors/lib.a(diff.o)
 .text.diff_main
                0x0003bb20      0x5e0 editors/lib.a(diff.o)
                0x0003bb20                diff_main
 .text.parse_escapes
                0x0003c100       0x78 editors/lib.a(sed.o)
 .text.index_of_next_unescaped_regexp_delim
                0x0003c178       0xb8 editors/lib.a(sed.o)
 .text.copy_parsing_escapes
                0x0003c230       0x5c editors/lib.a(sed.o)
 .text.parse_regex_delim
                0x0003c28c       0x80 editors/lib.a(sed.o)
 .text.get_address
                0x0003c30c       0xe8 editors/lib.a(sed.o)
 .text.parse_file_cmd
                0x0003c3f4       0xa0 editors/lib.a(sed.o)
 .text.add_cmd  0x0003c494      0x5c8 editors/lib.a(sed.o)
 .text.add_cmd_block
                0x0003ca5c       0x8c editors/lib.a(sed.o)
 .text.add_input_file
                0x0003cae8       0x3c editors/lib.a(sed.o)
 .text.flush_append
                0x0003cb24       0x44 editors/lib.a(sed.o)
 .text.pipe_putc
                0x0003cb68       0x54 editors/lib.a(sed.o)
 .text.append   0x0003cbbc       0x1c editors/lib.a(sed.o)
 .text.get_next_line
                0x0003cbd8       0xc8 editors/lib.a(sed.o)
 .text.puts_maybe_newline
                0x0003cca0       0xac editors/lib.a(sed.o)
 .text.cleanup_outname
                0x0003cd4c       0x18 editors/lib.a(sed.o)
 .text.process_files
                0x0003cd64      0xa50 editors/lib.a(sed.o)
 .text.sed_main
                0x0003d7b4      0x2c0 editors/lib.a(sed.o)
                0x0003d7b4                sed_main
 .text.add_grep_list_data
                0x0003da74       0x18 findutils/lib.a(grep.o)
 .text.print_line
                0x0003da8c       0xe0 findutils/lib.a(grep.o)
 .text.grep_file
                0x0003db6c      0x4c4 findutils/lib.a(grep.o)
 .text.file_action_grep
                0x0003e030       0x74 findutils/lib.a(grep.o)
 .text.grep_main
                0x0003e0a4      0x3b4 findutils/lib.a(grep.o)
                0x0003e0a4                grep_main
 .text.write_wtmp
                0x0003e458       0x94 init/lib.a(halt.o)
 .text.halt_main
                0x0003e4ec       0xf4 init/lib.a(halt.o)
                0x0003e4ec                halt_main
 .text.set_sane_term
                0x0003e5e0       0xa4 init/lib.a(init.o)
 .text.new_init_action
                0x0003e684       0xbc init/lib.a(init.o)
 .text.reset_sighandlers_and_unblock_sigs
                0x0003e740       0x20 init/lib.a(init.o)
 .text.pause_and_low_level_reboot
                0x0003e760       0x3c init/lib.a(init.o)
 .text.mark_terminated
                0x0003e79c       0x60 init/lib.a(init.o)
 .text.message  0x0003e7fc      0x114 init/lib.a(init.o)
 .text.parse_inittab
                0x0003e910      0x1b8 init/lib.a(init.o)
 .text.open_stdio_to_tty
                0x0003eac8       0x84 init/lib.a(init.o)
 .text.init_exec
                0x0003eb4c      0x138 init/lib.a(init.o)
 .text.run      0x0003ec84      0x114 init/lib.a(init.o)
 .text.run_actions
                0x0003ed98       0xa0 init/lib.a(init.o)
 .text.check_delayed_sigs
                0x0003ee38       0xe8 init/lib.a(init.o)
 .text.stop_handler
                0x0003ef20       0x6c init/lib.a(init.o)
 .text.run_shutdown_and_kill_processes
                0x0003ef8c       0x78 init/lib.a(init.o)
 .text.restart_handler
                0x0003f004       0x68 init/lib.a(init.o)
 .text.halt_reboot_pwoff
                0x0003f06c       0x70 init/lib.a(init.o)
 .text.init_main
                0x0003f0dc      0x428 init/lib.a(init.o)
                0x0003f0dc                init_main
 .text.bb_ask_confirmation
                0x0003f504       0x58 libbb/lib.a(ask_confirmation.o)
                0x0003f504                bb_ask_confirmation
 .text.askpass_timeout
                0x0003f55c        0x4 libbb/lib.a(bb_askpass.o)
 .text.bb_ask   0x0003f560      0x19c libbb/lib.a(bb_askpass.o)
                0x0003f560                bb_ask
 .text.bb_ask_stdin
                0x0003f6fc       0x10 libbb/lib.a(bb_askpass.o)
                0x0003f6fc                bb_ask_stdin
 .text.bb_do_delay
                0x0003f70c       0x34 libbb/lib.a(bb_do_delay.o)
                0x0003f70c                bb_do_delay
 .text.xgetpwnam
                0x0003f740       0x28 libbb/lib.a(bb_pwd.o)
                0x0003f740                xgetpwnam
 .text.xgetgrnam
                0x0003f768       0x28 libbb/lib.a(bb_pwd.o)
                0x0003f768                xgetgrnam
 .text.xgetpwuid
                0x0003f790       0x28 libbb/lib.a(bb_pwd.o)
                0x0003f790                xgetpwuid
 .text.xuid2uname
                0x0003f7b8       0x10 libbb/lib.a(bb_pwd.o)
                0x0003f7b8                xuid2uname
 .text.uid2uname
                0x0003f7c8       0x14 libbb/lib.a(bb_pwd.o)
                0x0003f7c8                uid2uname
 .text.gid2group
                0x0003f7dc       0x14 libbb/lib.a(bb_pwd.o)
                0x0003f7dc                gid2group
 .text.uid2uname_utoa
                0x0003f7f0       0x24 libbb/lib.a(bb_pwd.o)
                0x0003f7f0                uid2uname_utoa
 .text.gid2group_utoa
                0x0003f814       0x24 libbb/lib.a(bb_pwd.o)
                0x0003f814                gid2group_utoa
 .text.xuname2uid
                0x0003f838       0x10 libbb/lib.a(bb_pwd.o)
                0x0003f838                xuname2uid
 .text.xgroup2gid
                0x0003f848       0x10 libbb/lib.a(bb_pwd.o)
                0x0003f848                xgroup2gid
 .text.get_ug_id
                0x0003f858       0x3c libbb/lib.a(bb_pwd.o)
                0x0003f858                get_ug_id
 .text.bb_pstrcmp
                0x0003f894        0xc libbb/lib.a(bb_qsort.o)
                0x0003f894                bb_pstrcmp
 .text.qsort_string_vector
                0x0003f8a0       0x10 libbb/lib.a(bb_qsort.o)
                0x0003f8a0                qsort_string_vector
 .text.change_identity
                0x0003f8b0       0x40 libbb/lib.a(change_identity.o)
                0x0003f8b0                change_identity
 .text.index_in_strings
                0x0003f8f0       0x54 libbb/lib.a(compare_string_array.o)
                0x0003f8f0                index_in_strings
 .text.index_in_substrings
                0x0003f944       0x8c libbb/lib.a(compare_string_array.o)
                0x0003f944                index_in_substrings
 .text.nth_string
                0x0003f9d0       0x34 libbb/lib.a(compare_string_array.o)
                0x0003f9d0                nth_string
 .text.ask_and_unlink
                0x0003fa04       0x88 libbb/lib.a(copy_file.o)
 .text.copy_file
                0x0003fa8c      0x654 libbb/lib.a(copy_file.o)
                0x0003fa8c                copy_file
 .text.correct_password
                0x000400e0       0xec libbb/lib.a(correct_password.o)
                0x000400e0                correct_password
 .text.crc32_filltable
                0x000401cc       0x8c libbb/lib.a(crc32.o)
                0x000401cc                crc32_filltable
 .text.crc32_block_endian0
                0x00040258       0x28 libbb/lib.a(crc32.o)
                0x00040258                crc32_block_endian0
 .text.create_icmp_socket
                0x00040280       0x5c libbb/lib.a(create_icmp_socket.o)
                0x00040280                create_icmp_socket
 .text.device_open
                0x000402dc       0x58 libbb/lib.a(device_open.o)
                0x000402dc                device_open
 .text.BB_EXECVP_or_die
                0x00040334       0x4c libbb/lib.a(execable.o)
                0x00040334                BB_EXECVP_or_die
 .text.fclose_if_not_stdin
                0x00040380       0x4c libbb/lib.a(fclose_nonstdin.o)
                0x00040380                fclose_if_not_stdin
 .text.fflush_stdout_and_exit
                0x000403cc       0x34 libbb/lib.a(fflush_stdout_and_exit.o)
                0x000403cc                fflush_stdout_and_exit
 .text.find_mount_point
                0x00040400      0x144 libbb/lib.a(find_mount_point.o)
                0x00040400                find_mount_point
 .text.find_pid_by_name
                0x00040544      0x108 libbb/lib.a(find_pid_by_name.o)
                0x00040544                find_pid_by_name
 .text.pidlist_reverse
                0x0004064c       0x60 libbb/lib.a(find_pid_by_name.o)
                0x0004064c                pidlist_reverse
 .text.bb_get_chunk_with_continuation
                0x000406ac       0xdc libbb/lib.a(get_line_from_file.o)
                0x000406ac                bb_get_chunk_with_continuation
 .text.bb_get_chunk_from_file
                0x00040788        0x8 libbb/lib.a(get_line_from_file.o)
                0x00040788                bb_get_chunk_from_file
 .text.xmalloc_fgetline
                0x00040790       0x34 libbb/lib.a(get_line_from_file.o)
                0x00040790                xmalloc_fgetline
 .text.get_volume_size_in_bytes
                0x000407c4      0x124 libbb/lib.a(get_volsize.o)
                0x000407c4                get_volume_size_in_bytes
 .text.getopt32
                0x000408e8      0x688 libbb/lib.a(getopt32.o)
                0x000408e8                getopt32
 .text.bb_herror_msg
                0x00040f70       0x38 libbb/lib.a(herror_msg.o)
                0x00040f70                bb_herror_msg
 .text.bb_herror_msg_and_die
                0x00040fa8       0x30 libbb/lib.a(herror_msg.o)
                0x00040fa8                bb_herror_msg_and_die
 .text.make_human_readable_str
                0x00040fd8      0x170 libbb/lib.a(human_readable.o)
                0x00040fd8                make_human_readable_str
 .text.smart_ulltoa5
                0x00041148      0x1fc libbb/lib.a(human_readable.o)
                0x00041148                smart_ulltoa5
 .text.INET_resolve
                0x00041344       0xc4 libbb/lib.a(inet_common.o)
                0x00041344                INET_resolve
 .text.INET_rresolve
                0x00041408      0x154 libbb/lib.a(inet_common.o)
                0x00041408                INET_rresolve
 .text.bb_info_msg
                0x0004155c       0x9c libbb/lib.a(info_msg.o)
                0x0004155c                bb_info_msg
 .text.is_in_ino_dev_hashtable
                0x000415f8       0x94 libbb/lib.a(inode_hash.o)
                0x000415f8                is_in_ino_dev_hashtable
 .text.add_to_ino_dev_hashtable
                0x0004168c       0xa0 libbb/lib.a(inode_hash.o)
                0x0004168c                add_to_ino_dev_hashtable
 .text.is_directory
                0x0004172c       0x54 libbb/lib.a(isdirectory.o)
                0x0004172c                is_directory
 .text.get_linux_version_code
                0x00041780       0x70 libbb/lib.a(kernel_version.o)
                0x00041780                get_linux_version_code
 .text.BB_isspace
                0x000417f0       0x2c libbb/lib.a(lineedit.o)
 .text.deinit_S
                0x0004181c       0x44 libbb/lib.a(lineedit.o)
 .text.load_history
                0x00041860      0x158 libbb/lib.a(lineedit.o)
 .text.BB_ispunct
                0x000419b8       0x34 libbb/lib.a(lineedit.o)
 .text.put_prompt
                0x000419ec       0x5c libbb/lib.a(lineedit.o)
 .text.parse_and_put_prompt
                0x00041a48      0x398 libbb/lib.a(lineedit.o)
 .text.beep     0x00041de0        0x8 libbb/lib.a(lineedit.o)
 .text.input_backward
                0x00041de8       0xd8 libbb/lib.a(lineedit.o)
 .text.put_cur_glyph_and_inc_cursor
                0x00041ec0       0xdc libbb/lib.a(lineedit.o)
 .text.input_forward
                0x00041f9c       0x20 libbb/lib.a(lineedit.o)
 .text.put_till_end_and_adv_cursor
                0x00041fbc       0x2c libbb/lib.a(lineedit.o)
 .text.redraw   0x00041fe8       0x44 libbb/lib.a(lineedit.o)
 .text.goto_new_line
                0x0004202c       0x2c libbb/lib.a(lineedit.o)
 .text.input_delete
                0x00042058       0x68 libbb/lib.a(lineedit.o)
 .text.input_backspace
                0x000420c0       0x2c libbb/lib.a(lineedit.o)
 .text.save_string
                0x000420ec       0x30 libbb/lib.a(lineedit.o)
 .text.save_command_ps_at_cur_history
                0x0004211c       0x60 libbb/lib.a(lineedit.o)
 .text.get_previous_history
                0x0004217c       0x54 libbb/lib.a(lineedit.o)
 .text.get_next_history
                0x000421d0       0x54 libbb/lib.a(lineedit.o)
 .text.win_changed
                0x00042224       0x90 libbb/lib.a(lineedit.o)
 .text.new_line_input_t
                0x000422b4       0x18 libbb/lib.a(lineedit.o)
                0x000422b4                new_line_input_t
 .text.read_line_input
                0x000422cc      0xa0c libbb/lib.a(lineedit.o)
                0x000422cc                read_line_input
 .text.llist_add_to
                0x00042cd8       0x28 libbb/lib.a(llist.o)
                0x00042cd8                llist_add_to
 .text.llist_add_to_end
                0x00042d00       0x34 libbb/lib.a(llist.o)
                0x00042d00                llist_add_to_end
 .text.llist_pop
                0x00042d34       0x30 libbb/lib.a(llist.o)
                0x00042d34                llist_pop
 .text.print_login_issue
                0x00042d64      0x1b0 libbb/lib.a(login.o)
                0x00042d64                print_login_issue
 .text.print_login_prompt
                0x00042f14       0x3c libbb/lib.a(login.o)
                0x00042f14                print_login_prompt
 .text.sanitize_env_if_suid
                0x00042f50       0x5c libbb/lib.a(login.o)
                0x00042f50                sanitize_env_if_suid
 .text.query_loop
                0x00042fac       0x6c libbb/lib.a(loop.o)
                0x00042fac                query_loop
 .text.del_loop
                0x00043018       0x3c libbb/lib.a(loop.o)
                0x00043018                del_loop
 .text.set_loop
                0x00043054      0x2c4 libbb/lib.a(loop.o)
                0x00043054                set_loop
 .text.bb_make_directory
                0x00043318      0x1b0 libbb/lib.a(make_directory.o)
                0x00043318                bb_make_directory
 .text.bb_makedev
                0x000434c8       0x50 libbb/lib.a(makedev.o)
                0x000434c8                bb_makedev
 .text.match_fstype
                0x00043518       0x90 libbb/lib.a(match_fstype.o)
                0x00043518                match_fstype
 .text.bb_mode_string
                0x000435a8       0xa8 libbb/lib.a(mode_string.o)
                0x000435a8                bb_mode_string
 .text.config_free_data.clone.0
                0x00043650       0x1c libbb/lib.a(parse_config.o)
 .text.config_open2
                0x0004366c       0x28 libbb/lib.a(parse_config.o)
                0x0004366c                config_open2
 .text.config_open
                0x00043694        0xc libbb/lib.a(parse_config.o)
                0x00043694                config_open
 .text.config_close
                0x000436a0       0x28 libbb/lib.a(parse_config.o)
                0x000436a0                config_close
 .text.config_read
                0x000436c8      0x204 libbb/lib.a(parse_config.o)
                0x000436c8                config_read
 .text.bb_parse_mode
                0x000438cc      0x258 libbb/lib.a(parse_mode.o)
                0x000438cc                bb_parse_mode
 .text.bb_perror_nomsg_and_die
                0x00043b24        0x8 libbb/lib.a(perror_nomsg_and_die.o)
                0x00043b24                bb_perror_nomsg_and_die
 .text.write_pidfile
                0x00043b2c       0xac libbb/lib.a(pidfile.o)
                0x00043b2c                write_pidfile
 .text.printable_string
                0x00043bd8       0x80 libbb/lib.a(printable_string.o)
                0x00043bd8                printable_string
 .text.bb_process_escape_sequence
                0x00043c58       0xdc libbb/lib.a(process_escape_sequence.o)
                0x00043c58                bb_process_escape_sequence
 .text.strcpy_and_process_escape_sequences
                0x00043d34       0x48 libbb/lib.a(process_escape_sequence.o)
                0x00043d34                strcpy_and_process_escape_sequences
 .text.fast_strtoul_10
                0x00043d7c       0x40 libbb/lib.a(procps.o)
 .text.skip_fields
                0x00043dbc       0x24 libbb/lib.a(procps.o)
 .text.read_to_buf
                0x00043de0       0x4c libbb/lib.a(procps.o)
 .text.get_cached
                0x00043e2c       0x98 libbb/lib.a(procps.o)
 .text.get_cached_username
                0x00043ec4       0x18 libbb/lib.a(procps.o)
                0x00043ec4                get_cached_username
 .text.get_cached_groupname
                0x00043edc       0x18 libbb/lib.a(procps.o)
                0x00043edc                get_cached_groupname
 .text.free_procps_scan
                0x00043ef4       0x2c libbb/lib.a(procps.o)
                0x00043ef4                free_procps_scan
 .text.procps_scan
                0x00043f20      0x3b4 libbb/lib.a(procps.o)
                0x00043f20                procps_scan
 .text.read_cmdline
                0x000442d4       0x98 libbb/lib.a(procps.o)
                0x000442d4                read_cmdline
 .text.bb_progress_init
                0x0004436c       0x2c libbb/lib.a(progress.o)
                0x0004436c                bb_progress_init
 .text.bb_progress_update
                0x00044398      0x388 libbb/lib.a(progress.o)
                0x00044398                bb_progress_update
 .text.i64c     0x00044720       0x38 libbb/lib.a(pw_encrypt.o)
 .text.to64     0x00044758       0x34 libbb/lib.a(pw_encrypt.o)
 .text.ascii_to_bin
                0x0004478c       0x50 libbb/lib.a(pw_encrypt.o)
 .text.to64_msb_first
                0x000447dc       0x48 libbb/lib.a(pw_encrypt.o)
 .text.md5_crypt
                0x00044824      0x27c libbb/lib.a(pw_encrypt.o)
 .text.sha_crypt
                0x00044aa0      0x5a4 libbb/lib.a(pw_encrypt.o)
 .text.des_crypt
                0x00045044      0x624 libbb/lib.a(pw_encrypt.o)
 .text.crypt_make_salt
                0x00045668       0x78 libbb/lib.a(pw_encrypt.o)
                0x00045668                crypt_make_salt
 .text.pw_encrypt
                0x000456e0      0x4f0 libbb/lib.a(pw_encrypt.o)
                0x000456e0                pw_encrypt
 .text.read_key
                0x00045bd0      0x238 libbb/lib.a(read_key.o)
                0x00045bd0                read_key
 .text.read_key_ungets
                0x00045e08       0x38 libbb/lib.a(read_key.o)
                0x00045e08                read_key_ungets
 .text.nonblock_safe_read
                0x00045e40       0x68 libbb/lib.a(read_printf.o)
                0x00045e40                nonblock_safe_read
 .text.xmalloc_read
                0x00045ea8       0xe0 libbb/lib.a(read_printf.o)
                0x00045ea8                xmalloc_read
 .text.xmalloc_open_read_close
                0x00045f88       0x3c libbb/lib.a(read_printf.o)
                0x00045f88                xmalloc_open_read_close
 .text.xread    0x00045fc4       0x28 libbb/lib.a(read_printf.o)
                0x00045fc4                xread
 .text.open_zipped
                0x00045fec        0x8 libbb/lib.a(read_printf.o)
                0x00045fec                open_zipped
 .text.xmalloc_open_zipped_read_close
                0x00045ff4       0x50 libbb/lib.a(read_printf.o)
                0x00045ff4                xmalloc_open_zipped_read_close
 .text.true_action
                0x00046044        0x8 libbb/lib.a(recursive_action.o)
 .text.recursive_action
                0x0004604c      0x1f8 libbb/lib.a(recursive_action.o)
                0x0004604c                recursive_action
 .text.remove_file
                0x00046244      0x23c libbb/lib.a(remove_file.o)
                0x00046244                remove_file
 .text.run_shell
                0x00046480       0xf8 libbb/lib.a(run_shell.o)
                0x00046480                run_shell
 .text.safe_gethostname
                0x00046578       0x38 libbb/lib.a(safe_gethostname.o)
                0x00046578                safe_gethostname
 .text.safe_poll
                0x000465b0       0x64 libbb/lib.a(safe_poll.o)
                0x000465b0                safe_poll
 .text.safe_strncpy
                0x00046614       0x1c libbb/lib.a(safe_strncpy.o)
                0x00046614                safe_strncpy
 .text.overlapping_strcpy
                0x00046630       0x24 libbb/lib.a(safe_strncpy.o)
                0x00046630                overlapping_strcpy
 .text.setup_environment
                0x00046654      0x100 libbb/lib.a(setup_environment.o)
                0x00046654                setup_environment
 .text.record_signo
                0x00046754       0x10 libbb/lib.a(signals.o)
                0x00046754                record_signo
 .text.sigaction_set
                0x00046764        0x8 libbb/lib.a(signals.o)
                0x00046764                sigaction_set
 .text.sigprocmask_allsigs
                0x0004676c       0x28 libbb/lib.a(signals.o)
                0x0004676c                sigprocmask_allsigs
 .text.bb_signals
                0x00046794       0x44 libbb/lib.a(signals.o)
                0x00046794                bb_signals
 .text.bb_signals_recursive_norestart
                0x000467d8       0x64 libbb/lib.a(signals.o)
                0x000467d8                bb_signals_recursive_norestart
 .text.sig_unblock
                0x0004683c       0x34 libbb/lib.a(signals.o)
                0x0004683c                sig_unblock
 .text.kill_myself_with_sig
                0x00046870       0x28 libbb/lib.a(signals.o)
                0x00046870                kill_myself_with_sig
 .text.signal_SA_RESTART_empty_mask
                0x00046898       0x44 libbb/lib.a(signals.o)
                0x00046898                signal_SA_RESTART_empty_mask
 .text.signal_no_SA_RESTART_empty_mask
                0x000468dc       0x3c libbb/lib.a(signals.o)
                0x000468dc                signal_no_SA_RESTART_empty_mask
 .text.bb_simplify_abs_path_inplace
                0x00046918       0xbc libbb/lib.a(simplify_path.o)
                0x00046918                bb_simplify_abs_path_inplace
 .text.bb_simplify_path
                0x000469d4       0x50 libbb/lib.a(simplify_path.o)
                0x000469d4                bb_simplify_path
 .text.tty_baud_to_value
                0x00046a24       0x54 libbb/lib.a(speed_table.o)
                0x00046a24                tty_baud_to_value
 .text.tty_value_to_baud
                0x00046a78       0x40 libbb/lib.a(speed_table.o)
                0x00046a78                tty_value_to_baud
 .text.str_tolower
                0x00046ab8       0x2c libbb/lib.a(str_tolower.o)
                0x00046ab8                str_tolower
 .text.strrstr  0x00046ae4       0x4c libbb/lib.a(strrstr.o)
                0x00046ae4                strrstr
 .text.get_signum
                0x00046b30       0x88 libbb/lib.a(u_signal_names.o)
                0x00046b30                get_signum
 .text.get_signame
                0x00046bb8       0x34 libbb/lib.a(u_signal_names.o)
                0x00046bb8                get_signame
 .text.print_signames
                0x00046bec       0x34 libbb/lib.a(u_signal_names.o)
                0x00046bec                print_signames
 .text.socket_want_pktinfo
                0x00046c20       0x24 libbb/lib.a(udp_io.o)
                0x00046c20                socket_want_pktinfo
 .text.send_to_from
                0x00046c44       0xcc libbb/lib.a(udp_io.o)
                0x00046c44                send_to_from
 .text.recv_from_to
                0x00046d10       0xe0 libbb/lib.a(udp_io.o)
                0x00046d10                recv_from_to
 .text.wcrtomb_internal
                0x00046df0       0x84 libbb/lib.a(unicode.o)
 .text.mbstowc_internal
                0x00046e74       0xa0 libbb/lib.a(unicode.o)
 .text.bb_wcrtomb
                0x00046f14        0x4 libbb/lib.a(unicode.o)
                0x00046f14                bb_wcrtomb
 .text.bb_wcstombs
                0x00046f18       0x94 libbb/lib.a(unicode.o)
                0x00046f18                bb_wcstombs
 .text.bb_mbstowcs
                0x00046fac       0x54 libbb/lib.a(unicode.o)
                0x00046fac                bb_mbstowcs
 .text.bb_wcwidth
                0x00047000       0x30 libbb/lib.a(unicode.o)
                0x00047000                bb_wcwidth
 .text.unicode_conv_to_printable2
                0x00047030      0x110 libbb/lib.a(unicode.o)
 .text.unicode_conv_to_printable
                0x00047140        0xc libbb/lib.a(unicode.o)
                0x00047140                unicode_conv_to_printable
 .text.update_passwd
                0x0004714c      0x3c4 libbb/lib.a(update_passwd.o)
                0x0004714c                update_passwd
 .text.touch.clone.0
                0x00047510       0x34 libbb/lib.a(utmp.o)
 .text.write_new_utmp
                0x00047544      0x108 libbb/lib.a(utmp.o)
                0x00047544                write_new_utmp
 .text.update_utmp
                0x0004764c      0x160 libbb/lib.a(utmp.o)
                0x0004764c                update_utmp
 .text.bb_uuencode
                0x000477ac       0x9c libbb/lib.a(uuencode.o)
                0x000477ac                bb_uuencode
 .text.read_base64
                0x00047848      0x134 libbb/lib.a(uuencode.o)
                0x00047848                read_base64
 .text.spawn    0x0004797c       0x88 libbb/lib.a(vfork_daemon_rexec.o)
                0x0004797c                spawn
 .text.spawn_and_wait
                0x00047a04       0x10 libbb/lib.a(vfork_daemon_rexec.o)
                0x00047a04                spawn_and_wait
 .text.bb_daemonize_or_rexec
                0x00047a14       0xe8 libbb/lib.a(vfork_daemon_rexec.o)
                0x00047a14                bb_daemonize_or_rexec
 .text.bb_sanitize_stdio
                0x00047afc        0x8 libbb/lib.a(vfork_daemon_rexec.o)
                0x00047afc                bb_sanitize_stdio
 .text.fopen_or_warn_stdin
                0x00047b04       0x48 libbb/lib.a(wfopen_input.o)
                0x00047b04                fopen_or_warn_stdin
 .text.xfopen_stdin
                0x00047b4c       0x14 libbb/lib.a(wfopen_input.o)
                0x00047b4c                xfopen_stdin
 .text.open_or_warn_stdin
                0x00047b60       0x3c libbb/lib.a(wfopen_input.o)
                0x00047b60                open_or_warn_stdin
 .text.xopen_xwrite_close
                0x00047b9c       0x28 libbb/lib.a(write.o)
                0x00047b9c                xopen_xwrite_close
 .text.xstrtoull_range_sfx
                0x00047bc4      0x198 libbb/lib.a(xatonum.o)
                0x00047bc4                xstrtoull_range_sfx
 .text.xatoull_range
                0x00047d5c       0x28 libbb/lib.a(xatonum.o)
                0x00047d5c                xatoull_range
 .text.xatoull_sfx
                0x00047d84       0x2c libbb/lib.a(xatonum.o)
                0x00047d84                xatoull_sfx
 .text.xatoull  0x00047db0        0x8 libbb/lib.a(xatonum.o)
                0x00047db0                xatoull
 .text.xstrtoul_range_sfx
                0x00047db8      0x138 libbb/lib.a(xatonum.o)
                0x00047db8                xstrtoul_range_sfx
 .text.xatoul_range_sfx
                0x00047ef0       0x24 libbb/lib.a(xatonum.o)
                0x00047ef0                xatoul_range_sfx
 .text.xatoul_range
                0x00047f14       0x24 libbb/lib.a(xatonum.o)
                0x00047f14                xatoul_range
 .text.xatoul_sfx
                0x00047f38       0x1c libbb/lib.a(xatonum.o)
                0x00047f38                xatoul_sfx
 .text.xatoul   0x00047f54        0x8 libbb/lib.a(xatonum.o)
                0x00047f54                xatoul
 .text.xstrtol_range_sfx
                0x00047f5c       0x98 libbb/lib.a(xatonum.o)
                0x00047f5c                xstrtol_range_sfx
 .text.xatol_range
                0x00047ff4       0x24 libbb/lib.a(xatonum.o)
                0x00047ff4                xatol_range
 .text.xatol    0x00048018       0x20 libbb/lib.a(xatonum.o)
                0x00048018                xatol
 .text.xatoi_positive
                0x00048038        0xc libbb/lib.a(xatonum.o)
                0x00048038                xatoi_positive
 .text.xatou16  0x00048044       0x20 libbb/lib.a(xatonum.o)
                0x00048044                xatou16
 .text.sockaddr2str
                0x00048064       0x70 libbb/lib.a(xconnect.o)
 .text.get_lsa  0x000480d4       0x80 libbb/lib.a(xconnect.o)
 .text.setsockopt_reuseaddr
                0x00048154       0x24 libbb/lib.a(xconnect.o)
                0x00048154                setsockopt_reuseaddr
 .text.setsockopt_broadcast
                0x00048178       0x24 libbb/lib.a(xconnect.o)
                0x00048178                setsockopt_broadcast
 .text.setsockopt_bindtodevice
                0x0004819c       0x5c libbb/lib.a(xconnect.o)
                0x0004819c                setsockopt_bindtodevice
 .text.get_sock_lsa
                0x000481f8        0xc libbb/lib.a(xconnect.o)
                0x000481f8                get_sock_lsa
 .text.xconnect
                0x00048204       0x48 libbb/lib.a(xconnect.o)
                0x00048204                xconnect
 .text.bb_lookup_port
                0x0004824c       0x88 libbb/lib.a(xconnect.o)
                0x0004824c                bb_lookup_port
 .text.set_nport
                0x000482d4       0x10 libbb/lib.a(xconnect.o)
                0x000482d4                set_nport
 .text.str2sockaddr
                0x000482e4      0x1ac libbb/lib.a(xconnect.o)
 .text.host2sockaddr
                0x00048490        0x8 libbb/lib.a(xconnect.o)
                0x00048490                host2sockaddr
 .text.xhost2sockaddr
                0x00048498        0x8 libbb/lib.a(xconnect.o)
                0x00048498                xhost2sockaddr
 .text.xdotted2sockaddr
                0x000484a0        0x8 libbb/lib.a(xconnect.o)
                0x000484a0                xdotted2sockaddr
 .text.xsocket_type
                0x000484a8       0x3c libbb/lib.a(xconnect.o)
                0x000484a8                xsocket_type
 .text.create_and_bind_or_die
                0x000484e4       0x98 libbb/lib.a(xconnect.o)
 .text.create_and_bind_dgram_or_die
                0x0004857c        0x8 libbb/lib.a(xconnect.o)
                0x0004857c                create_and_bind_dgram_or_die
 .text.xconnect_stream
                0x00048584       0x34 libbb/lib.a(xconnect.o)
                0x00048584                xconnect_stream
 .text.xmalloc_sockaddr2dotted
                0x000485b8        0x8 libbb/lib.a(xconnect.o)
                0x000485b8                xmalloc_sockaddr2dotted
 .text.xmalloc_sockaddr2dotted_noport
                0x000485c0        0x8 libbb/lib.a(xconnect.o)
                0x000485c0                xmalloc_sockaddr2dotted_noport
 .text.xrealloc_getcwd_or_warn
                0x000485c8       0x7c libbb/lib.a(xgetcwd.o)
                0x000485c8                xrealloc_getcwd_or_warn
 .text.xgethostbyname
                0x00048644       0x28 libbb/lib.a(xgethostbyname.o)
                0x00048644                xgethostbyname
 .text.xrealloc_vector_helper
                0x0004866c       0x5c libbb/lib.a(xrealloc_vector.o)
                0x0004866c                xrealloc_vector_helper
 .text.regcomp_or_errmsg
                0x000486c8       0x50 libbb/lib.a(xregcomp.o)
                0x000486c8                regcomp_or_errmsg
 .text.xregcomp
                0x00048718       0x24 libbb/lib.a(xregcomp.o)
                0x00048718                xregcomp
 .text.concat_subpath_file
                0x0004873c       0x44 libbb/lib.a(concat_subpath_file.o)
                0x0004873c                concat_subpath_file
 .text.md5_process_block64
                0x00048780      0x220 libbb/lib.a(hash_md5_sha.o)
 .text.sha512_process_block128
                0x000489a0      0x40c libbb/lib.a(hash_md5_sha.o)
 .text.common64_end
                0x00048dac       0x84 libbb/lib.a(hash_md5_sha.o)
 .text.sha1_process_block64
                0x00048e30      0x1cc libbb/lib.a(hash_md5_sha.o)
 .text.sha256_process_block64
                0x00048ffc      0x1dc libbb/lib.a(hash_md5_sha.o)
 .text.md5_begin
                0x000491d8       0x4c libbb/lib.a(hash_md5_sha.o)
                0x000491d8                md5_begin
 .text.md5_hash
                0x00049224       0x68 libbb/lib.a(hash_md5_sha.o)
                0x00049224                md5_hash
 .text.md5_end  0x0004928c       0x28 libbb/lib.a(hash_md5_sha.o)
                0x0004928c                md5_end
 .text.sha256_begin
                0x000492b4       0x3c libbb/lib.a(hash_md5_sha.o)
                0x000492b4                sha256_begin
 .text.sha512_begin
                0x000492f0       0x40 libbb/lib.a(hash_md5_sha.o)
                0x000492f0                sha512_begin
 .text.sha512_hash
                0x00049330       0x9c libbb/lib.a(hash_md5_sha.o)
                0x00049330                sha512_hash
 .text.sha1_end
                0x000493cc       0x74 libbb/lib.a(hash_md5_sha.o)
                0x000493cc                sha1_end
 .text.sha512_end
                0x00049440       0xe8 libbb/lib.a(hash_md5_sha.o)
                0x00049440                sha512_end
 .text.bb_perror_nomsg
                0x00049528        0x8 libbb/lib.a(perror_nomsg.o)
                0x00049528                bb_perror_nomsg
 .text.bb_bswap_64
                0x00049530       0x34 libbb/lib.a(bb_bswap_64.o)
                0x00049530                bb_bswap_64
 .text.get_uidgid
                0x00049564      0x118 libpwdgrp/lib.a(uidgid_get.o)
                0x00049564                get_uidgid
 .text.xget_uidgid
                0x0004967c       0x28 libpwdgrp/lib.a(uidgid_get.o)
                0x0004967c                xget_uidgid
 .text.parse_chown_usergroup_or_die
                0x000496a4       0x98 libpwdgrp/lib.a(uidgid_get.o)
                0x000496a4                parse_chown_usergroup_or_die
 .text          0x0004973c       0xc8 /home/media/data/hudson_build/32bitProduct_SN98600_1.20_P2P_QIWO/ST58600_SRC/toolchain/crosstool-4.5.2/bin/../lib/gcc/arm-unknown-linux-uclibcgnueabi/4.5.2/libgcc.a(_udivsi3.o)
                0x0004973c                __udivsi3
                0x0004973c                __aeabi_uidiv
                0x000497e4                __aeabi_uidivmod
 .text          0x00049804       0xfc /home/media/data/hudson_build/32bitProduct_SN98600_1.20_P2P_QIWO/ST58600_SRC/toolchain/crosstool-4.5.2/bin/../lib/gcc/arm-unknown-linux-uclibcgnueabi/4.5.2/libgcc.a(_divsi3.o)
                0x00049804                __aeabi_idiv
                0x00049804                __divsi3
                0x000498e0                __aeabi_idivmod
 .text          0x00049900       0x1c /home/media/data/hudson_build/32bitProduct_SN98600_1.20_P2P_QIWO/ST58600_SRC/toolchain/crosstool-4.5.2/bin/../lib/gcc/arm-unknown-linux-uclibcgnueabi/4.5.2/libgcc.a(_lshrdi3.o)
                0x00049900                __aeabi_llsr
                0x00049900                __lshrdi3
 .text          0x0004991c       0x1c /home/media/data/hudson_build/32bitProduct_SN98600_1.20_P2P_QIWO/ST58600_SRC/toolchain/crosstool-4.5.2/bin/../lib/gcc/arm-unknown-linux-uclibcgnueabi/4.5.2/libgcc.a(_ashrdi3.o)
                0x0004991c                __ashrdi3
                0x0004991c                __aeabi_lasr
 .text          0x00049938       0x1c /home/media/data/hudson_build/32bitProduct_SN98600_1.20_P2P_QIWO/ST58600_SRC/toolchain/crosstool-4.5.2/bin/../lib/gcc/arm-unknown-linux-uclibcgnueabi/4.5.2/libgcc.a(_ashldi3.o)
                0x00049938                __ashldi3
                0x00049938                __aeabi_llsl
 .text          0x00049954      0x3b8 /home/media/data/hudson_build/32bitProduct_SN98600_1.20_P2P_QIWO/ST58600_SRC/toolchain/crosstool-4.5.2/bin/../lib/gcc/arm-unknown-linux-uclibcgnueabi/4.5.2/libgcc.a(_arm_addsubdf3.o)
                0x00049954                __aeabi_drsub
                0x0004995c                __aeabi_dsub
                0x0004995c                __subdf3
                0x00049960                __adddf3
                0x00049960                __aeabi_dadd
                0x00049c0c                __aeabi_ui2d
                0x00049c0c                __floatunsidf
                0x00049c30                __floatsidf
                0x00049c30                __aeabi_i2d
                0x00049c58                __extendsfdf2
                0x00049c58                __aeabi_f2d
                0x00049c98                __aeabi_ul2d
                0x00049c98                __floatundidf
                0x00049cac                __floatdidf
                0x00049cac                __aeabi_l2d
 .text          0x00049d0c      0x470 /home/media/data/hudson_build/32bitProduct_SN98600_1.20_P2P_QIWO/ST58600_SRC/toolchain/crosstool-4.5.2/bin/../lib/gcc/arm-unknown-linux-uclibcgnueabi/4.5.2/libgcc.a(_arm_muldivdf3.o)
                0x00049d0c                __aeabi_dmul
                0x00049d0c                __muldf3
                0x00049f78                __aeabi_ddiv
                0x00049f78                __divdf3
 .text          0x0004a17c      0x12c /home/media/data/hudson_build/32bitProduct_SN98600_1.20_P2P_QIWO/ST58600_SRC/toolchain/crosstool-4.5.2/bin/../lib/gcc/arm-unknown-linux-uclibcgnueabi/4.5.2/libgcc.a(_arm_cmpdf2.o)
                0x0004a17c                __gtdf2
                0x0004a17c                __gedf2
                0x0004a184                __ltdf2
                0x0004a184                __ledf2
                0x0004a18c                __cmpdf2
                0x0004a18c                __eqdf2
                0x0004a18c                __nedf2
                0x0004a214                __aeabi_cdrcmple
                0x0004a230                __aeabi_cdcmple
                0x0004a230                __aeabi_cdcmpeq
                0x0004a244                __aeabi_dcmpeq
                0x0004a258                __aeabi_dcmplt
                0x0004a26c                __aeabi_dcmple
                0x0004a280                __aeabi_dcmpge
                0x0004a294                __aeabi_dcmpgt
 .text          0x0004a2a8       0x5c /home/media/data/hudson_build/32bitProduct_SN98600_1.20_P2P_QIWO/ST58600_SRC/toolchain/crosstool-4.5.2/bin/../lib/gcc/arm-unknown-linux-uclibcgnueabi/4.5.2/libgcc.a(_arm_fixdfsi.o)
                0x0004a2a8                __fixdfsi
                0x0004a2a8                __aeabi_d2iz
 .text          0x0004a304       0x54 /home/media/data/hudson_build/32bitProduct_SN98600_1.20_P2P_QIWO/ST58600_SRC/toolchain/crosstool-4.5.2/bin/../lib/gcc/arm-unknown-linux-uclibcgnueabi/4.5.2/libgcc.a(_arm_fixunsdfsi.o)
                0x0004a304                __fixunsdfsi
                0x0004a304                __aeabi_d2uiz
 .text          0x0004a358       0xa0 /home/media/data/hudson_build/32bitProduct_SN98600_1.20_P2P_QIWO/ST58600_SRC/toolchain/crosstool-4.5.2/bin/../lib/gcc/arm-unknown-linux-uclibcgnueabi/4.5.2/libgcc.a(_arm_truncdfsf2.o)
                0x0004a358                __aeabi_d2f
                0x0004a358                __truncdfsf2
 .text          0x0004a3f8       0x24 /home/media/data/hudson_build/32bitProduct_SN98600_1.20_P2P_QIWO/ST58600_SRC/toolchain/crosstool-4.5.2/bin/../lib/gcc/arm-unknown-linux-uclibcgnueabi/4.5.2/libgcc.a(_aeabi_ulcmp.o)
                0x0004a3f8                __aeabi_ulcmp
 .text          0x0004a41c       0x44 /home/media/data/hudson_build/32bitProduct_SN98600_1.20_P2P_QIWO/ST58600_SRC/toolchain/crosstool-4.5.2/bin/../lib/gcc/arm-unknown-linux-uclibcgnueabi/4.5.2/libgcc.a(_aeabi_ldivmod.o)
                0x0004a41c                __aeabi_ldivmod
 .text          0x0004a460       0x3c /home/media/data/hudson_build/32bitProduct_SN98600_1.20_P2P_QIWO/ST58600_SRC/toolchain/crosstool-4.5.2/bin/../lib/gcc/arm-unknown-linux-uclibcgnueabi/4.5.2/libgcc.a(_aeabi_uldivmod.o)
                0x0004a460                __aeabi_uldivmod
 .text          0x0004a49c       0x10 /home/media/data/hudson_build/32bitProduct_SN98600_1.20_P2P_QIWO/ST58600_SRC/toolchain/crosstool-4.5.2/bin/../lib/gcc/arm-unknown-linux-uclibcgnueabi/4.5.2/libgcc.a(_dvmd_lnx.o)
                0x0004a49c                __aeabi_ldiv0
                0x0004a49c                __aeabi_idiv0
 .text          0x0004a4ac       0x64 /home/media/data/hudson_build/32bitProduct_SN98600_1.20_P2P_QIWO/ST58600_SRC/toolchain/crosstool-4.5.2/bin/../lib/gcc/arm-unknown-linux-uclibcgnueabi/4.5.2/libgcc.a(_fixunsdfdi.o)
                0x0004a4ac                __aeabi_d2ulz
                0x0004a4ac                __fixunsdfdi
 .text          0x0004a510       0x78 /home/media/data/hudson_build/32bitProduct_SN98600_1.20_P2P_QIWO/ST58600_SRC/toolchain/crosstool-4.5.2/bin/../lib/gcc/arm-unknown-linux-uclibcgnueabi/4.5.2/libgcc.a(bpabi.o)
                0x0004a510                __gnu_ldivmod_helper
                0x0004a54c                __gnu_uldivmod_helper
 .text          0x0004a588      0x484 /home/media/data/hudson_build/32bitProduct_SN98600_1.20_P2P_QIWO/ST58600_SRC/toolchain/crosstool-4.5.2/bin/../lib/gcc/arm-unknown-linux-uclibcgnueabi/4.5.2/libgcc.a(_divdi3.o)
                0x0004a588                __divdi3
 .text          0x0004aa0c      0x41c /home/media/data/hudson_build/32bitProduct_SN98600_1.20_P2P_QIWO/ST58600_SRC/toolchain/crosstool-4.5.2/bin/../lib/gcc/arm-unknown-linux-uclibcgnueabi/4.5.2/libgcc.a(_udivdi3.o)
                0x0004aa0c                __udivdi3
 .text          0x0004ae28      0xdfc /home/media/data/hudson_build/32bitProduct_SN98600_1.20_P2P_QIWO/ST58600_SRC/toolchain/crosstool-4.5.2/bin/../lib/gcc/arm-unknown-linux-uclibcgnueabi/4.5.2/libgcc_eh.a(unwind-arm.o)
                0x0004b1e8                _Unwind_VRS_Get
                0x0004b254                _Unwind_VRS_Set
                0x0004b66c                __aeabi_unwind_cpp_pr2
                0x0004b674                __aeabi_unwind_cpp_pr1
                0x0004b67c                __aeabi_unwind_cpp_pr0
                0x0004b684                _Unwind_VRS_Pop
                0x0004b9e4                _Unwind_GetCFA
                0x0004b9ec                __gnu_Unwind_RaiseException
                0x0004ba90                __gnu_Unwind_ForcedUnwind
                0x0004baac                __gnu_Unwind_Resume
                0x0004bb18                __gnu_Unwind_Resume_or_Rethrow
                0x0004bb38                _Unwind_Complete
                0x0004bb3c                _Unwind_DeleteException
                0x0004bb5c                __gnu_Unwind_Backtrace
 .text          0x0004bc24      0x1a8 /home/media/data/hudson_build/32bitProduct_SN98600_1.20_P2P_QIWO/ST58600_SRC/toolchain/crosstool-4.5.2/bin/../lib/gcc/arm-unknown-linux-uclibcgnueabi/4.5.2/libgcc_eh.a(libunwind.o)
                0x0004bc24                __restore_core_regs
                0x0004bc24                restore_core_regs
                0x0004bc38                __gnu_Unwind_Restore_VFP
                0x0004bc40                __gnu_Unwind_Save_VFP
                0x0004bc48                __gnu_Unwind_Restore_VFP_D
                0x0004bc50                __gnu_Unwind_Save_VFP_D
                0x0004bc58                __gnu_Unwind_Restore_VFP_D_16_to_31
                0x0004bc60                __gnu_Unwind_Save_VFP_D_16_to_31
                0x0004bc68                __gnu_Unwind_Restore_WMMXD
                0x0004bcac                __gnu_Unwind_Save_WMMXD
                0x0004bcf0                __gnu_Unwind_Restore_WMMXC
                0x0004bd04                __gnu_Unwind_Save_WMMXC
                0x0004bd18                ___Unwind_RaiseException
                0x0004bd18                _Unwind_RaiseException
                0x0004bd3c                ___Unwind_Resume
                0x0004bd3c                _Unwind_Resume
                0x0004bd60                _Unwind_Resume_or_Rethrow
                0x0004bd60                ___Unwind_Resume_or_Rethrow
                0x0004bd84                ___Unwind_ForcedUnwind
                0x0004bd84                _Unwind_ForcedUnwind
                0x0004bda8                _Unwind_Backtrace
                0x0004bda8                ___Unwind_Backtrace
 .text          0x0004bdcc      0x494 /home/media/data/hudson_build/32bitProduct_SN98600_1.20_P2P_QIWO/ST58600_SRC/toolchain/crosstool-4.5.2/bin/../lib/gcc/arm-unknown-linux-uclibcgnueabi/4.5.2/libgcc_eh.a(pr-support.o)
                0x0004be50                __gnu_unwind_execute
                0x0004c1e4                __gnu_unwind_frame
                0x0004c224                _Unwind_GetRegionStart
                0x0004c234                _Unwind_GetLanguageSpecificData
                0x0004c250                _Unwind_GetDataRelBase
                0x0004c258                _Unwind_GetTextRelBase
 .text          0x0004c260       0x28 /home/media/data/hudson_build/32bitProduct_SN98600_1.20_P2P_QIWO/ST58600_SRC/toolchain/crosstool-4.5.2/bin/../arm-unknown-linux-uclibcgnueabi/sysroot/usr/lib/uclibc_nonshared.a(atexit.os)
                0x0004c260                atexit
 *(SORT(.gnu.warning))
 *(SORT(.glue_7t))
 .glue_7t       0x00000000        0x0 linker stubs
 *(SORT(.glue_7))
 .glue_7        0x00000000        0x0 linker stubs
 *(SORT(.vfp11_veneer))
 .vfp11_veneer  0x00000000        0x0 linker stubs
 *(SORT(.v4_bx))
 .v4_bx         0x00000000        0x0 linker stubs

.fini           0x0004c288       0x10
 *(SORT(.fini))
 .fini          0x0004c288        0xc /home/media/data/hudson_build/32bitProduct_SN98600_1.20_P2P_QIWO/ST58600_SRC/toolchain/crosstool-4.5.2/bin/../arm-unknown-linux-uclibcgnueabi/sysroot/usr/lib/crti.o
                0x0004c288                _fini
 .fini          0x0004c294        0x4 /home/media/data/hudson_build/32bitProduct_SN98600_1.20_P2P_QIWO/ST58600_SRC/toolchain/crosstool-4.5.2/bin/../arm-unknown-linux-uclibcgnueabi/sysroot/usr/lib/crtn.o
                0x0004c298                PROVIDE (__etext, .)
                0x0004c298                PROVIDE (_etext, .)
                0x0004c298                PROVIDE (etext, .)

.rodata         0x0004c298     0x8bfc
 *(SORT(.rodata) SORT(.rodata.*) SORT(.gnu.linkonce.r.*))
 .rodata.sha_K  0x0004c298      0x280 libbb/lib.a(hash_md5_sha.o)
 .rodata.applet_install_loc
                0x0004c518       0x38 libbb/lib.a(appletlib.o)
                0x0004c518                applet_install_loc
 .rodata.applet_nameofs
                0x0004c550       0xd4 libbb/lib.a(appletlib.o)
                0x0004c550                applet_nameofs
 .rodata.applet_names
                0x0004c624      0x290 libbb/lib.a(appletlib.o)
                0x0004c624                applet_names
 .rodata.install_dir
                0x0004c8b4       0x14 libbb/lib.a(appletlib.o)
 .rodata.applet_main
                0x0004c8c8      0x1a4 libbb/lib.a(appletlib.o)
                0x0004c8c8                applet_main
 .rodata.bb_msg_requires_arg
                0x0004ca6c       0x18 libbb/lib.a(messages.o)
                0x0004ca6c                bb_msg_requires_arg
 .rodata.bb_banner
                0x0004ca84       0x2c libbb/lib.a(messages.o)
                0x0004ca84                bb_banner
 .rodata.bb_msg_you_must_be_root
                0x0004cab0       0x14 libbb/lib.a(messages.o)
                0x0004cab0                bb_msg_you_must_be_root
 .rodata.bb_hexdigits_upcase
                0x0004cac4       0x14 libbb/lib.a(messages.o)
                0x0004cac4                bb_hexdigits_upcase
 .rodata.bb_path_wtmp_file
                0x0004cad8       0x10 libbb/lib.a(messages.o)
                0x0004cad8                bb_path_wtmp_file
 .rodata.bb_PATH_root_path
                0x0004cae8       0x24 libbb/lib.a(messages.o)
                0x0004cae8                bb_PATH_root_path
 .rodata.const_int_1
                0x0004cb0c        0x4 libbb/lib.a(messages.o)
                0x0004cb0c                const_int_1
 .rodata.const_int_0
                0x0004cb10        0x4 libbb/lib.a(messages.o)
                0x0004cb10                const_int_0
 .rodata.bb_msg_standard_input
                0x0004cb14       0x10 libbb/lib.a(messages.o)
                0x0004cb14                bb_msg_standard_input
 .rodata.bb_default_login_shell
                0x0004cb24        0xc libbb/lib.a(messages.o)
                0x0004cb24                bb_default_login_shell
 .rodata.bb_msg_can_not_create_raw_socket
                0x0004cb30       0x18 libbb/lib.a(messages.o)
                0x0004cb30                bb_msg_can_not_create_raw_socket
 .rodata.bb_msg_unknown
                0x0004cb48        0xc libbb/lib.a(messages.o)
                0x0004cb48                bb_msg_unknown
 .rodata.bb_msg_invalid_date
                0x0004cb54       0x14 libbb/lib.a(messages.o)
                0x0004cb54                bb_msg_invalid_date
 .rodata.bb_msg_perm_denied_are_you_root
                0x0004cb68       0x24 libbb/lib.a(messages.o)
                0x0004cb68                bb_msg_perm_denied_are_you_root
 .rodata.bb_msg_memory_exhausted
                0x0004cb8c       0x14 libbb/lib.a(messages.o)
                0x0004cb8c                bb_msg_memory_exhausted
 .rodata.bb_busybox_exec_path
                0x0004cba0       0x10 libbb/lib.a(messages.o)
                0x0004cba0                bb_busybox_exec_path
 .rodata.bb_msg_standard_output
                0x0004cbb0       0x10 libbb/lib.a(messages.o)
                0x0004cbb0                bb_msg_standard_output
 .rodata.erase.7160
                0x0004cbc0        0xc loginutils/lib.a(getty.o)
 .rodata.opcode_value
                0x0004cbcc       0x44 miscutils/lib.a(mt.o)
 .rodata.CSWTCH.1
                0x0004cc10       0x5c miscutils/lib.a(mt.o)
 .rodata.OptArray
                0x0004cc6c       0x88 networking/lib.a(ifconfig.o)
 .rodata.Arg1Opt
                0x0004ccf4       0x48 networking/lib.a(ifconfig.o)
 .rodata.builtins
                0x0004cd3c       0x50 networking/lib.a(inetd.o)
 .rodata.const_IPTOS_LOWDELAY
                0x0004cd8c        0x4 networking/lib.a(ntpd.o)
 .rodata.CSWTCH.32
                0x0004cd90       0x4c networking/lib.a(ping.o)
 .rodata.flagvals
                0x0004cddc       0x14 networking/lib.a(route.o)
 .rodata.flags_ipvx
                0x0004cdf0       0x10 networking/lib.a(route.o)
 .rodata.len_of_option_as_string
                0x0004ce00        0xc networking/udhcp/lib.a(dhcpc.o)
 .rodata.filter_prog.7601
                0x0004ce0c        0x8 networking/udhcp/lib.a(dhcpc.o)
 .rodata.filter_instr.7600
                0x0004ce14       0x48 networking/udhcp/lib.a(dhcpc.o)
 .rodata.dhcp_option_lengths
                0x0004ce5c        0xc networking/udhcp/lib.a(common.o)
                0x0004ce5c                dhcp_option_lengths
 .rodata.MAC_BCAST_ADDR
                0x0004ce68        0x8 networking/udhcp/lib.a(common.o)
                0x0004ce68                MAC_BCAST_ADDR
 .rodata.dhcp_optflags
                0x0004ce70       0x40 networking/udhcp/lib.a(common.o)
                0x0004ce70                dhcp_optflags
 .rodata.dhcp_option_strings
                0x0004ceb0       0xdc networking/udhcp/lib.a(common.o)
                0x0004ceb0                dhcp_option_strings
 .rodata.varinit_data
                0x0004cf8c       0x48 shell/lib.a(ash.o)
 .rodata.tokname_array
                0x0004cfd4       0x74 shell/lib.a(ash.o)
 .rodata.CSWTCH.665
                0x0004d048       0x30 shell/lib.a(ash.o)
 .rodata.CSWTCH.682
                0x0004d078        0x8 shell/lib.a(ash.o)
 .rodata.vstype.8155
                0x0004d080       0x30 shell/lib.a(ash.o)
 .rodata.S_I_T  0x0004d0b0       0x18 shell/lib.a(ash.o)
 .rodata.builtintab
                0x0004d0c8      0x138 shell/lib.a(ash.o)
 .rodata.nodesize
                0x0004d200       0x1c shell/lib.a(ash.o)
 .rodata.optletters_optnames
                0x0004d21c       0x3c shell/lib.a(ash.o)
 .rodata.null_bltin.9508
                0x0004d258        0x8 shell/lib.a(ash.o)
 .rodata.limits_tbl
                0x0004d260       0x58 shell/lib.a(shell_common.o)
 .rodata.defifsvar
                0x0004d2b8        0x8 shell/lib.a(shell_common.o)
                0x0004d2b8                defifsvar
 .rodata.ulimit_opt_string
                0x0004d2c0       0x28 shell/lib.a(shell_common.o)
 .rodata.prioritynames
                0x0004d2e8       0x68 sysklogd/lib.a(syslogd_and_logger.o)
                0x0004d2e8                prioritynames
 .rodata.facilitynames
                0x0004d350       0xb8 sysklogd/lib.a(syslogd_and_logger.o)
                0x0004d350                facilitynames
 .rodata.init_data
                0x0004d408       0x20 sysklogd/lib.a(syslogd_and_logger.o)
 .rodata.i386_sys_types
                0x0004d428       0xc4 util-linux/lib.a(fdisk.o)
 .rodata.supers.7256
                0x0004d4ec       0xb8 util-linux/lib.a(mkfs_ext2.o)
 .rodata.filesystems.7826
                0x0004d5a4       0x24 util-linux/lib.a(mount.o)
 .rodata.nfs_err_stat
                0x0004d5c8       0x14 util-linux/lib.a(mount.o)
 .rodata.mount_option_str
                0x0004d5dc      0x104 util-linux/lib.a(mount.o)
 .rodata.mount_options
                0x0004d6e0       0x98 util-linux/lib.a(mount.o)
 .rodata.nfs_err_errnum
                0x0004d778       0x14 util-linux/lib.a(mount.o)
 .rodata.prefilled.7277
                0x0004d78c       0x30 archival/lib.a(tar.o)
 .rodata.dd_suffixes
                0x0004d7bc       0x58 coreutils/lib.a(dd.o)
 .rodata.head_suffixes
                0x0004d814       0x20 coreutils/lib.a(head.o)
 .rodata.opt_flags
                0x0004d834       0x6c coreutils/lib.a(ls.o)
 .rodata.modes_cubp
                0x0004d8a0        0xc coreutils/lib.a(mknod.o)
 .rodata.mode_name
                0x0004d8ac      0x1f0 coreutils/lib.a(stty.o)
 .rodata.control_name
                0x0004da9c       0x5c coreutils/lib.a(stty.o)
 .rodata.stty_suffixes
                0x0004daf8       0x20 coreutils/lib.a(stty.o)
 .rodata.mode_info
                0x0004db18      0x2a8 coreutils/lib.a(stty.o)
 .rodata.control_info
                0x0004ddc0       0x24 coreutils/lib.a(stty.o)
 .rodata.ops_table
                0x0004dde4       0x50 coreutils/lib.a(test.o)
 .rodata.no_op.7096
                0x0004de34        0x4 coreutils/lib.a(test.o)
 .rodata.C.10.9212
                0x0004de38        0x8 debianutils/lib.a(start_stop_daemon.o)
 .rodata.signals.7089
                0x0004de40        0xc init/lib.a(halt.o)
 .rodata.magic.7088
                0x0004de4c        0xc init/lib.a(halt.o)
 .rodata.bb_argv_dash
                0x0004de58        0x8 libbb/lib.a(getopt32.o)
                0x0004de58                bb_argv_dash
 .rodata.bb_null_long_options
                0x0004de60       0x10 libbb/lib.a(getopt32.o)
 .rodata.type_chars
                0x0004de70       0x10 libbb/lib.a(mode_string.o)
 .rodata.mode_chars
                0x0004de80        0x8 libbb/lib.a(mode_string.o)
 .rodata.who_mask.7023
                0x0004de88       0x10 libbb/lib.a(parse_mode.o)
 .rodata.perm_mask.7024
                0x0004de98       0x18 libbb/lib.a(parse_mode.o)
 .rodata.u_sbox
                0x0004deb0      0x100 libbb/lib.a(pw_encrypt.o)
 .rodata.IP     0x0004dfb0       0x40 libbb/lib.a(pw_encrypt.o)
 .rodata.comp_perm
                0x0004dff0       0x30 libbb/lib.a(pw_encrypt.o)
 .rodata.pbox   0x0004e020       0x20 libbb/lib.a(pw_encrypt.o)
 .rodata.key_perm
                0x0004e040       0x38 libbb/lib.a(pw_encrypt.o)
 .rodata.key_shifts
                0x0004e078       0x10 libbb/lib.a(pw_encrypt.o)
 .rodata.bits8  0x0004e088        0x8 libbb/lib.a(pw_encrypt.o)
 .rodata.bits32
                0x0004e090       0x80 libbb/lib.a(pw_encrypt.o)
 .rodata.speeds
                0x0004e110       0x54 libbb/lib.a(speed_table.o)
 .rodata.signals
                0x0004e164       0xe0 libbb/lib.a(u_signal_names.o)
 .rodata.bb_uuenc_tbl_std
                0x0004e244       0x44 libbb/lib.a(uuencode.o)
                0x0004e244                bb_uuenc_tbl_std
 .rodata.bb_uuenc_tbl_base64
                0x0004e288       0x44 libbb/lib.a(uuencode.o)
                0x0004e288                bb_uuenc_tbl_base64
 .rodata.rconsts.7092
                0x0004e2cc       0x10 libbb/lib.a(hash_md5_sha.o)
 .rodata.init256
                0x0004e2dc       0x28 libbb/lib.a(hash_md5_sha.o)
 .rodata.init512_lo
                0x0004e304       0x28 libbb/lib.a(hash_md5_sha.o)
 .rodata.C_array.7052
                0x0004e32c      0x100 libbb/lib.a(hash_md5_sha.o)
 .rodata.mode_mask
                0x0004e42c       0x18 libbb/lib.a(appletlib.o)
 .rodata.permmask.10266
                0x0004e444       0x12 shell/lib.a(ash.o)
 .rodata.usr_sbin
                0x0004e456        0xb libbb/lib.a(appletlib.o)
 .rodata.config_file
                0x0004e461       0x12 libbb/lib.a(appletlib.o)
 .rodata.usr_bin
                0x0004e473        0xa libbb/lib.a(appletlib.o)
 .rodata.str1.1
                0x0004e47d      0x31f libbb/lib.a(appletlib.o)
                                0x33f (size before relaxing)
 .rodata.mode_chars.7471
                0x0004e79c        0xf libbb/lib.a(appletlib.o)
 .rodata.str1.1
                0x0004e7ab        0x7 libbb/lib.a(concat_path_file.o)
                                  0xa (size before relaxing)
 .rodata.str1.1
                0x00000000        0x7 libbb/lib.a(perror_msg.o)
                                  0x3 (size before relaxing)
 .rodata.str1.1
                0x0004e7b2        0x6 libbb/lib.a(skip_whitespace.o)
 .rodata.str1.1
                0x00000000        0x6 libbb/lib.a(verror_msg.o)
 .rodata.str1.1
                0x00000000        0x6 libbb/lib.a(wfopen.o)
                                  0x4 (size before relaxing)
 .rodata.str1.1
                0x0004e7b8        0xe libbb/lib.a(xfuncs.o)
 .rodata.str1.1
                0x0004e7c6      0x14d libbb/lib.a(xfuncs_printf.o)
                                0x159 (size before relaxing)
 .rodata.str1.1
                0x0004e913       0x27 libbb/lib.a(xreadlink.o)
 .rodata.str1.1
                0x0004e93a       0x22 libbb/lib.a(copyfd.o)
 .rodata.str1.1
                0x0004e95c       0x46 libbb/lib.a(time.o)
                                 0x61 (size before relaxing)
 .rodata.str1.1
                0x0004e9a2       0xc1 loginutils/lib.a(getty.o)
                                 0xdc (size before relaxing)
 .rodata.opt_string
                0x0004ea63       0x11 loginutils/lib.a(getty.o)
 .rodata.str1.1
                0x0004ea74      0x13a loginutils/lib.a(login.o)
 .rodata.str1.1
                0x0004ebae      0x198 loginutils/lib.a(passwd.o)
                                0x19c (size before relaxing)
 .rodata.str1.1
                0x0004ed46       0xbe loginutils/lib.a(sulogin.o)
                                 0xc4 (size before relaxing)
 .rodata.str1.1
                0x0004ee04       0x4b loginutils/lib.a(vlock.o)
                                 0x50 (size before relaxing)
 .rodata.str1.1
                0x0004ee4f      0x119 miscutils/lib.a(flash_eraseall.o)
 .rodata.opcode_name
                0x0004ef68       0xd5 miscutils/lib.a(mt.o)
 .rodata.str1.1
                0x0004f03d       0x2e miscutils/lib.a(mt.o)
                                 0x34 (size before relaxing)
 .rodata.str1.1
                0x0004f06b       0x19 miscutils/lib.a(strings.o)
                                 0x1b (size before relaxing)
 .rodata.default_format
                0x0004f084       0x17 miscutils/lib.a(time.o)
 .rodata.long_format
                0x0004f09b      0x2cb miscutils/lib.a(time.o)
 .rodata.str1.1
                0x0004f366       0x83 miscutils/lib.a(time.o)
                                 0x9a (size before relaxing)
 .rodata.posix_format
                0x0004f3e9       0x17 miscutils/lib.a(time.o)
 .rodata.str1.1
                0x0004f400      0x188 modutils/lib.a(modprobe-small.o)
                                0x1b3 (size before relaxing)
 .rodata.str1.1
                0x0004f588       0x18 networking/lib.a(hostname.o)
                                 0x1c (size before relaxing)
 .rodata        0x0004f5a0       0x12 networking/lib.a(ifconfig.o)
 .rodata.str1.1
                0x0004f5b2      0x126 networking/lib.a(ifconfig.o)
                                0x12e (size before relaxing)
 .rodata        0x0004f6d8       0x20 networking/lib.a(inetd.o)
 .rodata.SOCK_xxx.7897
                0x0004f6f8        0x6 networking/lib.a(inetd.o)
 .rodata.str1.1
                0x0004f6fe      0x248 networking/lib.a(inetd.o)
                                0x27e (size before relaxing)
 .rodata.str1.1
                0x0004f946      0x266 networking/lib.a(ntpd.o)
 .rodata.str1.1
                0x0004fbac      0x262 networking/lib.a(ping.o)
                                0x277 (size before relaxing)
 .rodata.tbl_verb
                0x0004fe0e       0x15 networking/lib.a(route.o)
 .rodata.str1.1
                0x0004fe23      0x1a0 networking/lib.a(route.o)
                                0x1b0 (size before relaxing)
 .rodata.tbl_ipvx
                0x0004ffc3       0x68 networking/lib.a(route.o)
 .rodata.tbl_hash_net_host
                0x0005002b        0xf networking/lib.a(route.o)
 .rodata.str1.1
                0x0005003a      0x286 networking/lib.a(wget.o)
                                0x2a5 (size before relaxing)
 .rodata.keywords.7187
                0x000502c0       0x33 networking/lib.a(wget.o)
 .rodata.str1.1
                0x000502f3      0x539 networking/udhcp/lib.a(dhcpc.o)
                                0x558 (size before relaxing)
 .rodata.str1.1
                0x0005082c       0xb2 networking/udhcp/lib.a(packet.o)
                                 0xfb (size before relaxing)
 .rodata.str1.1
                0x000508de       0x12 networking/udhcp/lib.a(signalpipe.o)
 .rodata.str1.1
                0x000508f0       0xa5 networking/udhcp/lib.a(socket.o)
 .rodata.str1.1
                0x00050995       0x4b networking/udhcp/lib.a(arpping.o)
                                 0x4d (size before relaxing)
 .rodata.str1.1
                0x000509e0      0x144 networking/udhcp/lib.a(common.o)
 .rodata.str1.1
                0x00050b24       0x86 procps/lib.a(kill.o)
                                 0x8a (size before relaxing)
 .rodata.str1.1
                0x00000000       0x86 procps/lib.a(pidof.o)
                                  0x5 (size before relaxing)
 .rodata.str1.1
                0x00050baa       0x3e procps/lib.a(ps.o)
 .rodata        0x00050be8       0x68 shell/lib.a(ash.o)
 .rodata.C_escapes.9919
                0x00050c50       0x12 shell/lib.a(ash.o)
 .rodata.spec_symbls.7730
                0x00050c62       0x1b shell/lib.a(ash.o)
 .rodata.types.10009
                0x00050c7d        0x6 shell/lib.a(ash.o)
 .rodata.qchars.8444
                0x00050c83        0x3 shell/lib.a(ash.o)
 .rodata.permuser.10264
                0x00050c86        0x3 shell/lib.a(ash.o)
 .rodata.syntax_index_table.7731
                0x00050c89       0x1a shell/lib.a(ash.o)
 .rodata.xxreadtoken_chars
                0x00050ca3        0x7 shell/lib.a(ash.o)
 .rodata.permmode.10265
                0x00050caa        0x3 shell/lib.a(ash.o)
 .rodata.metachars.8894
                0x00050cad        0x4 shell/lib.a(ash.o)
 .rodata.dolatstr
                0x00050cb1        0x5 shell/lib.a(ash.o)
 .rodata.timescmd_str
                0x00050cb6        0x9 shell/lib.a(ash.o)
 .rodata.xxreadtoken_tokens
                0x00050cbf        0xa shell/lib.a(ash.o)
 .rodata.spclchars.8581
                0x00050cc9        0xa shell/lib.a(ash.o)
 .rodata.str1.1
                0x00050cd3      0x7b3 shell/lib.a(ash.o)
                                0x86f (size before relaxing)
 .rodata.op_tokens
                0x00051486       0x8d shell/lib.a(math.o)
 .rodata.str1.1
                0x00051513       0x75 shell/lib.a(math.o)
                                 0x7a (size before relaxing)
 .rodata.str1.1
                0x00051588      0x11a shell/lib.a(shell_common.o)
                                0x163 (size before relaxing)
 .rodata.str1.1
                0x000516a2       0x48 sysklogd/lib.a(klogd.o)
                                 0x63 (size before relaxing)
 .rodata.str1.1
                0x000516ea      0x1b7 sysklogd/lib.a(syslogd_and_logger.o)
                                0x1e9 (size before relaxing)
 .rodata.str1.1
                0x000518a1       0x14 util-linux/lib.a(dmesg.o)
 .rodata.str1.1
                0x000518b5       0xfa util-linux/lib.a(fdformat.o)
                                0x10f (size before relaxing)
 .rodata        0x000519af        0x7 util-linux/lib.a(fdisk.o)
 .rodata.str1.1
                0x000519b6      0x70f util-linux/lib.a(fdisk.o)
                                0x761 (size before relaxing)
 .rodata.getopt_longopts
                0x000520c5       0x5f util-linux/lib.a(getopt.o)
 .rodata.str1.1
                0x00052124       0x95 util-linux/lib.a(getopt.o)
                                 0xab (size before relaxing)
 .rodata.str1.1
                0x000521b9      0x87b util-linux/lib.a(ipcs.o)
                                0x922 (size before relaxing)
 .rodata.str1.1
                0x00052a34       0x26 util-linux/lib.a(losetup.o)
                                 0x2e (size before relaxing)
 .rodata.str1.1
                0x00052a5a      0x102 util-linux/lib.a(mdev.o)
                                0x137 (size before relaxing)
 .rodata.keywords.7237
                0x00052b5c        0xc util-linux/lib.a(mdev.o)
 .rodata.str1.1
                0x00052b68      0x21c util-linux/lib.a(mkfs_ext2.o)
                                0x234 (size before relaxing)
 .rodata.str1.1
                0x00052d84       0x38 util-linux/lib.a(mkfs_reiser.o)
                                 0x70 (size before relaxing)
 .rodata.str1.1
                0x00052dbc      0x17c util-linux/lib.a(mkfs_vfat.o)
                                0x180 (size before relaxing)
 .rodata.boot_code
                0x00052f38       0x3b util-linux/lib.a(mkfs_vfat.o)
 .rodata.options.8083
                0x00052f73       0xa1 util-linux/lib.a(mount.o)
 .rodata.str1.1
                0x00053014      0x2dd util-linux/lib.a(mount.o)
                                0x323 (size before relaxing)
 .rodata.options.8107
                0x000532f1       0x39 util-linux/lib.a(mount.o)
 .rodata.str1.1
                0x0005332a        0xe util-linux/lib.a(swaponoff.o)
                                 0x22 (size before relaxing)
 .rodata.str1.1
                0x00053338       0x61 util-linux/lib.a(umount.o)
                                 0x81 (size before relaxing)
 .rodata.str1.1
                0x00053399      0x15b archival/lib.a(tar.o)
                                0x166 (size before relaxing)
 .rodata.str1.1
                0x000534f4       0xc4 archival/libarchive/lib.a(data_extract_all.o)
 .rodata        0x000535b8        0x5 archival/libarchive/lib.a(get_header_tar.o)
 .rodata.str1.1
                0x000535bd       0xb3 archival/libarchive/lib.a(get_header_tar.o)
 .rodata.str1.1
                0x00053670       0x36 archival/libarchive/lib.a(header_verbose_list.o)
                                 0x39 (size before relaxing)
 .rodata.str1.1
                0x000536a6        0xd archival/libarchive/lib.a(seek_by_jump.o)
 .rodata.str1.1
                0x00000000        0xd coreutils/lib.a(cat.o)
                                  0x2 (size before relaxing)
 .rodata.str1.1
                0x00000000        0xd coreutils/lib.a(chgrp.o)
                                  0x4 (size before relaxing)
 .rodata.str1.1
                0x000536b3       0x15 coreutils/lib.a(chmod.o)
                                 0x18 (size before relaxing)
 .rodata.str1.1
                0x000536c8        0x3 coreutils/lib.a(chown.o)
                                  0x6 (size before relaxing)
 .rodata.str1.1
                0x000536cb        0x3 coreutils/lib.a(chroot.o)
                                  0xb (size before relaxing)
 .rodata.str1.1
                0x000536ce       0x2a coreutils/lib.a(cp.o)
 .rodata.optstring
                0x000536f8        0xb coreutils/lib.a(cut.o)
 .rodata._op_on_field.7082
                0x00053703       0x1f coreutils/lib.a(cut.o)
 .rodata.str1.1
                0x00053722       0xd5 coreutils/lib.a(cut.o)
                                 0xd9 (size before relaxing)
 .rodata.isoformats.7047
                0x000537f7       0x1c coreutils/lib.a(date.o)
 .rodata.str1.1
                0x00053813       0x7f coreutils/lib.a(date.o)
                                 0x9a (size before relaxing)
 .rodata.str1.1
                0x00053892       0x66 coreutils/lib.a(dd.o)
 .rodata.keywords.7062
                0x000538f8       0x1a coreutils/lib.a(dd.o)
 .rodata.str1.1
                0x00053912        0x4 coreutils/lib.a(echo.o)
 .rodata.str1.1
                0x00053916       0x10 coreutils/lib.a(env.o)
 .rodata.str1.1
                0x00053926       0xb1 coreutils/lib.a(expr.o)
                                 0xe2 (size before relaxing)
 .rodata.keywords.7208
                0x000539d7       0x21 coreutils/lib.a(expr.o)
 .rodata.str1.1
                0x00000000       0xb1 coreutils/lib.a(fsync.o)
                                  0x2 (size before relaxing)
 .rodata.head_opts
                0x000539f8        0x3 coreutils/lib.a(head.o)
 .rodata.str1.1
                0x000539fb        0xd coreutils/lib.a(head.o)
                                  0xf (size before relaxing)
 .rodata.str1.1
                0x00053a08        0x5 coreutils/lib.a(hostid.o)
 .rodata.str1.1
                0x00053a0d       0x4d coreutils/lib.a(install.o)
 .rodata.str1.1
                0x00053a5a        0x7 coreutils/lib.a(ln.o)
                                 0x11 (size before relaxing)
 .rodata.str1.1
                0x00053a61        0x9 coreutils/lib.a(logname.o)
 .rodata        0x00053a6a       0x11 coreutils/lib.a(ls.o)
 .rodata.ls_options
                0x00053a7b       0x1f coreutils/lib.a(ls.o)
 .rodata.str1.1
                0x00053a9a       0x79 coreutils/lib.a(ls.o)
                                 0x8a (size before relaxing)
 .rodata.str1.1
                0x00053b13        0x4 coreutils/lib.a(mkdir.o)
                                 0x16 (size before relaxing)
 .rodata.modes_chars
                0x00053b17        0x8 coreutils/lib.a(mknod.o)
 .rodata.fmt.7050
                0x00053b1f       0x2d coreutils/lib.a(mv.o)
 .rodata.str1.1
                0x00053b4c       0x54 coreutils/lib.a(mv.o)
                                 0x55 (size before relaxing)
 .rodata.format_chars.7111
                0x00053ba0        0xe coreutils/lib.a(printf.o)
 .rodata.str1.1
                0x00053bae       0x1b coreutils/lib.a(printf.o)
                                 0x30 (size before relaxing)
 .rodata.str1.1
                0x00053bc9       0x27 coreutils/lib.a(rm.o)
 .rodata.OPT_STR
                0x00053bf0       0x18 coreutils/lib.a(sort.o)
 .rodata.str1.1
                0x00053c08       0x73 coreutils/lib.a(sort.o)
                                 0x75 (size before relaxing)
 .rodata        0x00053c7b       0x6f coreutils/lib.a(stty.o)
 .rodata.tcflag_offsets.7093
                0x00053cea        0x4 coreutils/lib.a(stty.o)
 .rodata.params.7149
                0x00053cee       0x31 coreutils/lib.a(stty.o)
 .rodata.str1.1
                0x00053d1f      0x151 coreutils/lib.a(stty.o)
                                0x15a (size before relaxing)
 .rodata.ops_texts
                0x00053e70       0x7c coreutils/lib.a(test.o)
 .rodata.str1.1
                0x00053eec       0x6a coreutils/lib.a(test.o)
                                 0x74 (size before relaxing)
 .rodata.str1.1
                0x00053f56        0x5 coreutils/lib.a(touch.o)
 .rodata.str1.1
                0x00053f5b       0x1e coreutils/lib.a(tr.o)
                                 0x2c (size before relaxing)
 .rodata.classes.7048
                0x00053f79       0x52 coreutils/lib.a(tr.o)
 .rodata.str1.1
                0x00000000        0xa coreutils/lib.a(tty.o)
 .rodata.str1.1
                0x00053fcb       0x19 coreutils/lib.a(uniq.o)
 .rodata.str1.1
                0x00053fe4       0x33 coreutils/lib.a(uudecode.o)
                                 0x4a (size before relaxing)
 .rodata.str1.1
                0x00054017       0x2b coreutils/lib.a(uuencode.o)
                                 0x39 (size before relaxing)
 .rodata.str1.1
                0x00054042       0x13 coreutils/lib.a(wc.o)
                                 0x1f (size before relaxing)
 .rodata.str1.1
                0x00000000       0x13 coreutils/lib.a(yes.o)
                                  0x2 (size before relaxing)
 .rodata.str1.1
                0x00000000       0x10 coreutils/libcoreutils/lib.a(cp_mv_stat.o)
 .rodata.str1.1
                0x00054055        0x3 coreutils/libcoreutils/lib.a(getopt_mk_fifo_nod.o)
 .rodata.str1.1
                0x00054058      0x154 debianutils/lib.a(start_stop_daemon.o)
                                0x176 (size before relaxing)
 .rodata.str1.1
                0x000541ac      0x165 editors/lib.a(diff.o)
                                0x17e (size before relaxing)
 .rodata.str1.1
                0x00054311      0x1ad editors/lib.a(sed.o)
                                0x1cc (size before relaxing)
 .rodata.semicolon_whitespace
                0x000544be        0x7 editors/lib.a(sed.o)
 .rodata.str1.1
                0x000544c5       0x53 findutils/lib.a(grep.o)
                                 0x5f (size before relaxing)
 .rodata.str1.1
                0x00054518       0x1f init/lib.a(halt.o)
 .rodata.actions.7212
                0x00054537       0x40 init/lib.a(init.o)
 .rodata.press_enter.7166
                0x00054577       0x2f init/lib.a(init.o)
 .rodata.str1.1
                0x000545a6      0x251 init/lib.a(init.o)
                                0x293 (size before relaxing)
 .rodata.str1.1
                0x000547f7       0x3f libbb/lib.a(bb_pwd.o)
 .rodata.str1.1
                0x00054836       0x11 libbb/lib.a(change_identity.o)
 .rodata.str1.1
                0x00054847      0x121 libbb/lib.a(copy_file.o)
                                0x177 (size before relaxing)
 .rodata.str1.1
                0x00054968        0xe libbb/lib.a(correct_password.o)
 .rodata.str1.1
                0x00000000        0xe libbb/lib.a(execable.o)
                                 0x18 (size before relaxing)
 .rodata.str1.1
                0x00054976        0x7 libbb/lib.a(find_mount_point.o)
                                 0x16 (size before relaxing)
 .rodata.str1.1
                0x0005497d       0x29 libbb/lib.a(get_volsize.o)
                                 0x2a (size before relaxing)
 .rodata.str1.1
                0x00000000        0x2 libbb/lib.a(getopt32.o)
 .rodata.unit_chars.7024
                0x000549a6        0x9 libbb/lib.a(human_readable.o)
 .rodata.str1.1
                0x000549af       0x1d libbb/lib.a(human_readable.o)
                                 0x2f (size before relaxing)
 .rodata.str1.1
                0x00000000        0xa libbb/lib.a(inet_common.o)
 .rodata.str1.1
                0x00000000        0x3 libbb/lib.a(info_msg.o)
 .rodata.str1.1
                0x00000000        0x1 libbb/lib.a(inode_hash.o)
 .rodata.str1.1
                0x000549cc       0x1d libbb/lib.a(kernel_version.o)
                                 0x1f (size before relaxing)
 .rodata.str1.1
                0x000549e9       0x4a libbb/lib.a(lineedit.o)
                                 0x5a (size before relaxing)
 .rodata.null_str
                0x00054a33        0x1 libbb/lib.a(lineedit.o)
 .rodata.fmtstr_d
                0x00054a34        0xd libbb/lib.a(login.o)
 .rodata.forbid
                0x00054a41       0x96 libbb/lib.a(login.o)
 .rodata.str1.1
                0x00054ad7        0x9 libbb/lib.a(login.o)
                                  0xb (size before relaxing)
 .rodata.fmtstr_t
                0x00054ae0        0x9 libbb/lib.a(login.o)
 .rodata.str1.1
                0x00054ae9        0x8 libbb/lib.a(loop.o)
                                 0x14 (size before relaxing)
 .rodata.str1.1
                0x00054af1       0x32 libbb/lib.a(make_directory.o)
 .rodata.str1.1
                0x00054b23       0x28 libbb/lib.a(parse_config.o)
 .rodata.who_chars.7025
                0x00054b4b        0x5 libbb/lib.a(parse_mode.o)
 .rodata.perm_chars.7026
                0x00054b50        0x7 libbb/lib.a(parse_mode.o)
 .rodata.charmap.7030
                0x00054b57       0x14 libbb/lib.a(process_escape_sequence.o)
 .rodata.str1.1
                0x00054b6b       0x13 libbb/lib.a(procps.o)
                                 0x37 (size before relaxing)
 .rodata.str1.1
                0x00054b7e       0x50 libbb/lib.a(progress.o)
                                 0x51 (size before relaxing)
 .rodata.str_rounds
                0x00054bce        0xb libbb/lib.a(pw_encrypt.o)
 .rodata.esccmds.7027
                0x00054bd9       0x51 libbb/lib.a(read_key.o)
 .rodata.str1.1
                0x00054c2a       0x15 libbb/lib.a(read_printf.o)
                                 0x30 (size before relaxing)
 .rodata.str1.1
                0x00054c3f       0x74 libbb/lib.a(remove_file.o)
                                 0x96 (size before relaxing)
 .rodata.str1.1
                0x00000000       0x1a libbb/lib.a(run_shell.o)
 .rodata.str1.1
                0x00000000       0x74 libbb/lib.a(safe_gethostname.o)
                                  0x2 (size before relaxing)
 .rodata.str1.1
                0x00054cb3        0x5 libbb/lib.a(safe_poll.o)
 .rodata.str1.1
                0x00054cb8       0x30 libbb/lib.a(setup_environment.o)
                                 0x4c (size before relaxing)
 .rodata.str1.1
                0x00054ce8        0x4 libbb/lib.a(u_signal_names.o)
 .rodata.str1.1
                0x00054cec       0x57 libbb/lib.a(update_passwd.o)
                                 0x7b (size before relaxing)
 .rodata.str1.1
                0x00054d43        0xe libbb/lib.a(utmp.o)
 .rodata.str1.1
                0x00054d51       0x17 libbb/lib.a(uuencode.o)
 .rodata.str1.1
                0x00000000        0xc libbb/lib.a(vfork_daemon_rexec.o)
 .rodata.str1.1
                0x00000000        0x2 libbb/lib.a(wfopen_input.o)
 .rodata.str1.1
                0x00054d68       0x4a libbb/lib.a(xatonum.o)
                                 0x5e (size before relaxing)
 .rodata.str1.1
                0x00054db2       0x62 libbb/lib.a(xconnect.o)
                                 0x6a (size before relaxing)
 .rodata.str1.1
                0x00054e14        0x7 libbb/lib.a(xgetcwd.o)
 .rodata.str1.1
                0x00000000        0x3 libbb/lib.a(xgethostbyname.o)
 .rodata.str1.1
                0x00054e1b       0x13 libbb/lib.a(xregcomp.o)
 .rodata.P_array.7053
                0x00054e2e       0x40 libbb/lib.a(hash_md5_sha.o)
 .rodata.S_array.7059
                0x00054e6e       0x10 libbb/lib.a(hash_md5_sha.o)
 .rodata.str1.1
                0x00054e7e       0x16 libpwdgrp/lib.a(uidgid_get.o)

.rodata1
 *(SORT(.rodata1))

.ARM.extab      0x00054e94       0x3c
 *(SORT(.ARM.extab*) SORT(.gnu.linkonce.armextab.*))
 .ARM.extab     0x00054e94       0x24 /home/media/data/hudson_build/32bitProduct_SN98600_1.20_P2P_QIWO/ST58600_SRC/toolchain/crosstool-4.5.2/bin/../lib/gcc/arm-unknown-linux-uclibcgnueabi/4.5.2/libgcc_eh.a(unwind-arm.o)
 .ARM.extab     0x00054eb8       0x18 /home/media/data/hudson_build/32bitProduct_SN98600_1.20_P2P_QIWO/ST58600_SRC/toolchain/crosstool-4.5.2/bin/../lib/gcc/arm-unknown-linux-uclibcgnueabi/4.5.2/libgcc_eh.a(pr-support.o)
                0x00054ed0                PROVIDE (__exidx_start, .)

.ARM.exidx      0x00054ed0       0xd0
 *(SORT(.ARM.exidx*) SORT(.gnu.linkonce.armexidx.*))
 .ARM.exidx     0x00054ed0        0x8 /home/media/data/hudson_build/32bitProduct_SN98600_1.20_P2P_QIWO/ST58600_SRC/toolchain/crosstool-4.5.2/bin/../lib/gcc/arm-unknown-linux-uclibcgnueabi/4.5.2/libgcc.a(bpabi.o)
                                 0x10 (size before relaxing)
 .ARM.exidx     0x00054ed8        0x8 /home/media/data/hudson_build/32bitProduct_SN98600_1.20_P2P_QIWO/ST58600_SRC/toolchain/crosstool-4.5.2/bin/../lib/gcc/arm-unknown-linux-uclibcgnueabi/4.5.2/libgcc.a(_divdi3.o)
 .ARM.exidx     0x00054ee0        0x8 /home/media/data/hudson_build/32bitProduct_SN98600_1.20_P2P_QIWO/ST58600_SRC/toolchain/crosstool-4.5.2/bin/../lib/gcc/arm-unknown-linux-uclibcgnueabi/4.5.2/libgcc.a(_udivdi3.o)
 .ARM.exidx     0x00054ee8       0x88 /home/media/data/hudson_build/32bitProduct_SN98600_1.20_P2P_QIWO/ST58600_SRC/toolchain/crosstool-4.5.2/bin/../lib/gcc/arm-unknown-linux-uclibcgnueabi/4.5.2/libgcc_eh.a(unwind-arm.o)
                                 0xb0 (size before relaxing)
 .ARM.exidx     0x00054f70       0x30 /home/media/data/hudson_build/32bitProduct_SN98600_1.20_P2P_QIWO/ST58600_SRC/toolchain/crosstool-4.5.2/bin/../lib/gcc/arm-unknown-linux-uclibcgnueabi/4.5.2/libgcc_eh.a(pr-support.o)
                                 0x40 (size before relaxing)
                0x00054fa0                PROVIDE (__exidx_end, .)

.eh_frame_hdr   0x00054fa0        0x0
 *(SORT(.eh_frame_hdr))
 .eh_frame_hdr  0x00000000        0x0 /home/media/data/hudson_build/32bitProduct_SN98600_1.20_P2P_QIWO/ST58600_SRC/toolchain/crosstool-4.5.2/bin/../arm-unknown-linux-uclibcgnueabi/sysroot/usr/lib/crtn.o

.eh_frame       0x00054fa0        0x4
 *(SORT(.eh_frame))
 .eh_frame      0x00054fa0        0x0 /home/media/data/hudson_build/32bitProduct_SN98600_1.20_P2P_QIWO/ST58600_SRC/toolchain/crosstool-4.5.2/bin/../lib/gcc/arm-unknown-linux-uclibcgnueabi/4.5.2/crtbegin.o
 .eh_frame      0x00054fa0        0x4 /home/media/data/hudson_build/32bitProduct_SN98600_1.20_P2P_QIWO/ST58600_SRC/toolchain/crosstool-4.5.2/bin/../lib/gcc/arm-unknown-linux-uclibcgnueabi/4.5.2/crtend.o

.gcc_except_table
 *(SORT(.gcc_except_table) SORT(.gcc_except_table.*))

.exception_ranges
 *(SORT(.exception_ranges) SORT(.exception_ranges*))
                0x00054fa4                . = (ALIGN (0x8000) - ((0x8000 - .) & 0x7fff))
                0x0005d000                . = DATA_SEGMENT_ALIGN (0x8000, 0x1000)

.eh_frame
 *(SORT(.eh_frame))

.gcc_except_table
 *(SORT(.gcc_except_table) SORT(.gcc_except_table.*))

.exception_ranges
 *(SORT(.exception_ranges) SORT(.exception_ranges*))

.tdata
 *(SORT(.tdata) SORT(.tdata.*) SORT(.gnu.linkonce.td.*))

.tbss
 *(SORT(.tbss) SORT(.tbss.*) SORT(.gnu.linkonce.tb.*))
 *(SORT(.tcommon))

.preinit_array  0x0005d000        0x0
                0x0005d000                PROVIDE (__preinit_array_start, .)
 *(SORT(.preinit_array))
                0x0005d000                PROVIDE (__preinit_array_end, .)

.init_array     0x0005d000        0x4
                0x0005d000                PROVIDE (__init_array_start, .)
 *(SORT(.init_array.*))
 *(SORT(.init_array))
 .init_array    0x0005d000        0x4 /home/media/data/hudson_build/32bitProduct_SN98600_1.20_P2P_QIWO/ST58600_SRC/toolchain/crosstool-4.5.2/bin/../lib/gcc/arm-unknown-linux-uclibcgnueabi/4.5.2/crtbegin.o
                0x0005d004                PROVIDE (__init_array_end, .)

.fini_array     0x0005d004        0x4
                0x0005d004                PROVIDE (__fini_array_start, .)
 *(SORT(.fini_array.*))
 *(SORT(.fini_array))
 .fini_array    0x0005d004        0x4 /home/media/data/hudson_build/32bitProduct_SN98600_1.20_P2P_QIWO/ST58600_SRC/toolchain/crosstool-4.5.2/bin/../lib/gcc/arm-unknown-linux-uclibcgnueabi/4.5.2/crtbegin.o
                0x0005d008                PROVIDE (__fini_array_end, .)

.ctors
 *crtbegin.o(SORT(.ctors))
 *crtbegin?.o(SORT(.ctors))
 *(SORT(EXCLUDE_FILE(*crtend?.o *crtend.o) .ctors))
 *(SORT(.ctors.*))
 *(SORT(.ctors))

.dtors
 *crtbegin.o(SORT(.dtors))
 *crtbegin?.o(SORT(.dtors))
 *(SORT(EXCLUDE_FILE(*crtend?.o *crtend.o) .dtors))
 *(SORT(.dtors.*))
 *(SORT(.dtors))

.jcr            0x0005d008        0x4
 *(SORT(.jcr))
 .jcr           0x0005d008        0x0 /home/media/data/hudson_build/32bitProduct_SN98600_1.20_P2P_QIWO/ST58600_SRC/toolchain/crosstool-4.5.2/bin/../lib/gcc/arm-unknown-linux-uclibcgnueabi/4.5.2/crtbegin.o
 .jcr           0x0005d008        0x4 /home/media/data/hudson_build/32bitProduct_SN98600_1.20_P2P_QIWO/ST58600_SRC/toolchain/crosstool-4.5.2/bin/../lib/gcc/arm-unknown-linux-uclibcgnueabi/4.5.2/crtend.o

.data.rel.ro
 *(SORT(.data.rel.ro.local*) SORT(.gnu.linkonce.d.rel.ro.local.*))
 *(SORT(.data.rel.ro*) SORT(.gnu.linkonce.d.rel.ro.*))

.dynamic        0x0005d00c       0xd0
 *(SORT(.dynamic))
 .dynamic       0x0005d00c       0xd0 /home/media/data/hudson_build/32bitProduct_SN98600_1.20_P2P_QIWO/ST58600_SRC/toolchain/crosstool-4.5.2/bin/../arm-unknown-linux-uclibcgnueabi/sysroot/usr/lib/crt1.o
                0x0005d00c                _DYNAMIC
                0x0005d0dc                . = DATA_SEGMENT_RELRO_END (., 0x0)

.got            0x0005d0dc      0x4b4
 *(SORT(.got.plt))
 .got.plt       0x0005d0dc      0x4a0 /home/media/data/hudson_build/32bitProduct_SN98600_1.20_P2P_QIWO/ST58600_SRC/toolchain/crosstool-4.5.2/bin/../arm-unknown-linux-uclibcgnueabi/sysroot/usr/lib/crt1.o
                0x0005d0dc                _GLOBAL_OFFSET_TABLE_
 *(SORT(.igot.plt))
 .igot.plt      0x00000000        0x0 /home/media/data/hudson_build/32bitProduct_SN98600_1.20_P2P_QIWO/ST58600_SRC/toolchain/crosstool-4.5.2/bin/../arm-unknown-linux-uclibcgnueabi/sysroot/usr/lib/crt1.o
 *(SORT(.got))
 .got           0x0005d57c       0x14 /home/media/data/hudson_build/32bitProduct_SN98600_1.20_P2P_QIWO/ST58600_SRC/toolchain/crosstool-4.5.2/bin/../arm-unknown-linux-uclibcgnueabi/sysroot/usr/lib/crt1.o
 *(SORT(.igot))

.data           0x0005d590       0x25
                0x0005d590                PROVIDE (__data_start, .)
 *(SORT(.data) SORT(.data.*) SORT(.gnu.linkonce.d.*))
 .data          0x0005d590        0x4 /home/media/data/hudson_build/32bitProduct_SN98600_1.20_P2P_QIWO/ST58600_SRC/toolchain/crosstool-4.5.2/bin/../lib/gcc/arm-unknown-linux-uclibcgnueabi/4.5.2/crtbegin.o
                0x0005d590                __dso_handle
 .data.msg_eol  0x0005d594        0x4 libbb/lib.a(verror_msg.o)
                0x0005d594                msg_eol
 .data.logmode  0x0005d598        0x4 libbb/lib.a(verror_msg.o)
                0x0005d598                logmode
 .data.sockfd   0x0005d59c        0x4 networking/udhcp/lib.a(dhcpc.o)
 .data.builtinloc
                0x0005d5a0        0x4 shell/lib.a(ash.o)
 .data.ttyfd    0x0005d5a4        0x4 shell/lib.a(ash.o)
 .data.g_parsefile
                0x0005d5a8        0x4 shell/lib.a(ash.o)
 .data.log_fd.7132
                0x0005d5ac        0x4 init/lib.a(init.o)
 .data.log_console
                0x0005d5b0        0x4 init/lib.a(init.o)
 .data.xfunc_error_retval
                0x0005d5b4        0x1 libbb/lib.a(default_error_retval.o)
                0x0005d5b4                xfunc_error_retval

.data1
 *(SORT(.data1))
                0x0005d5b5                _edata = .
                0x0005d5b5                PROVIDE (edata, .)
                0x0005d5b5                __bss_start = .
                0x0005d5b5                __bss_start__ = .

.bss            0x0005d5b8     0x1200
 *(SORT(.dynbss))
 .dynbss        0x0005d5b8       0x20 /home/media/data/hudson_build/32bitProduct_SN98600_1.20_P2P_QIWO/ST58600_SRC/toolchain/crosstool-4.5.2/bin/../arm-unknown-linux-uclibcgnueabi/sysroot/usr/lib/crt1.o
                0x0005d5b8                stdout
                0x0005d5c0                optarg
                0x0005d5c4                opterr
                0x0005d5c8                __environ
                0x0005d5c8                environ
                0x0005d5cc                optind
                0x0005d5d0                stdin
                0x0005d5d4                stderr
 *(SORT(.bss) SORT(.bss.*) SORT(.gnu.linkonce.b.*))
 .bss           0x0005d5d8       0x1c /home/media/data/hudson_build/32bitProduct_SN98600_1.20_P2P_QIWO/ST58600_SRC/toolchain/crosstool-4.5.2/bin/../lib/gcc/arm-unknown-linux-uclibcgnueabi/4.5.2/crtbegin.o
 .bss.ruid      0x0005d5f4        0x4 libbb/lib.a(appletlib.o)
 .bss.suid_config
                0x0005d5f8        0x4 libbb/lib.a(appletlib.o)
 .bss.local_buf
                0x0005d5fc        0xc libbb/lib.a(xfuncs.o)
 .bss.short_tty
                0x0005d608        0x4 loginutils/lib.a(login.o)
 .bss.state     0x0005d60c        0x4 networking/udhcp/lib.a(dhcpc.o)
 .bss.listen_mode
                0x0005d610        0x4 networking/udhcp/lib.a(dhcpc.o)
 .bss.signal_pipe
                0x0005d614        0x8 networking/udhcp/lib.a(signalpipe.o)
 .bss.startlinno
                0x0005d61c        0x4 shell/lib.a(ash.o)
 .bss.commandname
                0x0005d620        0x4 shell/lib.a(ash.o)
 .bss.argbackq  0x0005d624        0x4 shell/lib.a(ash.o)
 .bss.doprompt  0x0005d628        0x4 shell/lib.a(ash.o)
 .bss.jobless   0x0005d62c        0x4 shell/lib.a(ash.o)
 .bss.funcblocksize
                0x0005d630        0x4 shell/lib.a(ash.o)
 .bss.funcstring
                0x0005d634        0x4 shell/lib.a(ash.o)
 .bss.parsebackquote
                0x0005d638        0x4 shell/lib.a(ash.o)
 .bss.expdest   0x0005d63c        0x4 shell/lib.a(ash.o)
 .bss.cmdenviron
                0x0005d640        0x4 shell/lib.a(ash.o)
 .bss.cmdedit_prompt
                0x0005d644        0x4 shell/lib.a(ash.o)
 .bss.wordtext  0x0005d648        0x4 shell/lib.a(ash.o)
 .bss.is_interactive.9384
                0x0005d64c        0x4 shell/lib.a(ash.o)
 .bss.njobs     0x0005d650        0x4 shell/lib.a(ash.o)
 .bss.initialpgrp
                0x0005d654        0x4 shell/lib.a(ash.o)
 .bss.loopnest  0x0005d658        0x4 shell/lib.a(ash.o)
 .bss.heredoclist
                0x0005d65c        0x4 shell/lib.a(ash.o)
 .bss.lasttoken
                0x0005d660        0x4 shell/lib.a(ash.o)
 .bss.skipcount
                0x0005d664        0x4 shell/lib.a(ash.o)
 .bss.optptr    0x0005d668        0x4 shell/lib.a(ash.o)
 .bss.basepf    0x0005d66c       0x34 shell/lib.a(ash.o)
 .bss.ifsfirst  0x0005d6a0       0x10 shell/lib.a(ash.o)
 .bss.redirnode
                0x0005d6b0        0x4 shell/lib.a(ash.o)
 .bss.optionarg
                0x0005d6b4        0x4 shell/lib.a(ash.o)
 .bss.localvars
                0x0005d6b8        0x4 shell/lib.a(ash.o)
 .bss.curjob    0x0005d6bc        0x4 shell/lib.a(ash.o)
 .bss.pathopt   0x0005d6c0        0x4 shell/lib.a(ash.o)
 .bss.funcnest  0x0005d6c4        0x4 shell/lib.a(ash.o)
 .bss.argptr    0x0005d6c8        0x4 shell/lib.a(ash.o)
 .bss.checkkwd  0x0005d6cc        0x4 shell/lib.a(ash.o)
 .bss.heredoc   0x0005d6d0        0x4 shell/lib.a(ash.o)
 .bss.needprompt
                0x0005d6d4        0x4 shell/lib.a(ash.o)
 .bss.atab      0x0005d6d8        0x4 shell/lib.a(ash.o)
 .bss.doing_jobctl
                0x0005d6dc        0x4 shell/lib.a(ash.o)
 .bss.backquotelist
                0x0005d6e0        0x4 shell/lib.a(ash.o)
 .bss.evalskip  0x0005d6e4        0x4 shell/lib.a(ash.o)
 .bss.cmdtable  0x0005d6e8        0x4 shell/lib.a(ash.o)
 .bss.tokpushback
                0x0005d6ec        0x4 shell/lib.a(ash.o)
 .bss.lastcmdentry
                0x0005d6f0        0x4 shell/lib.a(ash.o)
 .bss.funcstringsize
                0x0005d6f4        0x4 shell/lib.a(ash.o)
 .bss.funcblock
                0x0005d6f8        0x4 shell/lib.a(ash.o)
 .bss.jobtab    0x0005d6fc        0x4 shell/lib.a(ash.o)
 .bss.line_input_state
                0x0005d700        0x4 shell/lib.a(ash.o)
 .bss.quoteflag
                0x0005d704        0x4 shell/lib.a(ash.o)
 .bss.exparg    0x0005d708        0x8 shell/lib.a(ash.o)
 .bss.cmdnextc  0x0005d710        0x4 shell/lib.a(ash.o)
 .bss.ifslastp  0x0005d714        0x4 shell/lib.a(ash.o)
 .bss.warned.7309
                0x0005d718        0x4 archival/lib.a(tar.o)
 .bss.key_list  0x0005d71c        0x4 coreutils/lib.a(sort.o)
 .bss.init_action_list
                0x0005d720        0x4 init/lib.a(init.o)
 .bss.passwd.7032
                0x0005d724        0x4 libbb/lib.a(bb_askpass.o)
 .bss.str.7025  0x0005d728        0x4 libbb/lib.a(human_readable.o)
 .bss.cache.7049
                0x0005d72c        0x4 libbb/lib.a(inet_common.o)
 .bss.ino_dev_hashtable
                0x0005d730        0x4 libbb/lib.a(inode_hash.o)
 .bss.buf.7024  0x0005d734        0xc libbb/lib.a(mode_string.o)
 .bss.cur_saved.7069
                0x0005d740        0x4 libbb/lib.a(printable_string.o)
 .bss.saved.7068
                0x0005d744       0x10 libbb/lib.a(printable_string.o)
 .bss.username  0x0005d754        0x8 libbb/lib.a(procps.o)
 .bss.groupname
                0x0005d75c        0x8 libbb/lib.a(procps.o)
 .bss.des_cctx  0x0005d764        0x4 libbb/lib.a(pw_encrypt.o)
 .bss.des_ctx   0x0005d768        0x4 libbb/lib.a(pw_encrypt.o)
 .bss.suid_cfg_readable
                0x0005d76c        0x1 libbb/lib.a(appletlib.o)
 .bss.back_exitstatus
                0x0005d76d        0x1 shell/lib.a(ash.o)
 .bss.exitstatus
                0x0005d76e        0x1 shell/lib.a(ash.o)
 .bss.format    0x0005d76f        0x1 util-linux/lib.a(ipcs.o)
 .bss.key_separator
                0x0005d770        0x1 coreutils/lib.a(sort.o)
 *(SORT(COMMON))
 *fill*         0x0005d771        0x7 00
 COMMON         0x0005d778     0x1001 libbb/lib.a(messages.o)
                0x0005d778                bb_common_bufsiz1
 *fill*         0x0005e779        0x3 00
 COMMON         0x0005e77c        0x4 libbb/lib.a(appletlib.o)
                0x0005e77c                applet_name
 COMMON         0x0005e780        0x8 libbb/lib.a(ptr_to_globals.o)
                0x0005e780                bb_errno
                0x0005e784                ptr_to_globals
 COMMON         0x0005e788        0x4 libbb/lib.a(xfunc_die.o)
                0x0005e788                die_sleep
 COMMON         0x0005e78c        0x4 networking/udhcp/lib.a(common.o)
                0x0005e78c                dhcp_verbose
 COMMON         0x0005e790        0xc shell/lib.a(ash_ptr_hack.o)
                0x0005e790                ash_ptr_to_globals_memstack
                0x0005e794                ash_ptr_to_globals_misc
                0x0005e798                ash_ptr_to_globals_var
 COMMON         0x0005e79c        0x4 coreutils/lib.a(test_ptr_hack.o)
                0x0005e79c                test_ptr_to_statics
 COMMON         0x0005e7a0        0xc libbb/lib.a(getopt32.o)
                0x0005e7a0                opt_complementary
                0x0005e7a4                option_mask32
                0x0005e7a8                applet_long_options
 COMMON         0x0005e7ac        0x4 libbb/lib.a(lineedit_ptr_hack.o)
                0x0005e7ac                lineedit_ptr_to_statics
 COMMON         0x0005e7b0        0x4 libbb/lib.a(pidfile.o)
                0x0005e7b0                wrote_pidfile
 COMMON         0x0005e7b4        0x4 libbb/lib.a(signals.o)
                0x0005e7b4                bb_got_signal
                0x0005e7b8                . = ALIGN ((. != 0x0)?0x4:0x1)
                0x0005e7b8                _bss_end__ = .
                0x0005e7b8                __bss_end__ = .
                0x0005e7b8                . = ALIGN (0x4)
                0x0005e7b8                . = ALIGN (0x4)
                0x0005e7b8                __end__ = .
                0x0005e7b8                _end = .
                0x0005e7b8                PROVIDE (end, .)
                0x0005e7b8                . = DATA_SEGMENT_END (.)

.stab
 *(SORT(.stab))

.stabstr
 *(SORT(.stabstr))

.stab.excl
 *(SORT(.stab.excl))

.stab.exclstr
 *(SORT(.stab.exclstr))

.stab.index
 *(SORT(.stab.index))

.stab.indexstr
 *(SORT(.stab.indexstr))

.comment        0x00000000       0x5e
 *(SORT(.comment))
 .comment       0x00000000       0x2e /home/media/data/hudson_build/32bitProduct_SN98600_1.20_P2P_QIWO/ST58600_SRC/toolchain/crosstool-4.5.2/bin/../arm-unknown-linux-uclibcgnueabi/sysroot/usr/lib/crti.o
                                 0x2f (size before relaxing)
 .comment       0x0000002e       0x30 /home/media/data/hudson_build/32bitProduct_SN98600_1.20_P2P_QIWO/ST58600_SRC/toolchain/crosstool-4.5.2/bin/../lib/gcc/arm-unknown-linux-uclibcgnueabi/4.5.2/crtbegin.o
                                 0x31 (size before relaxing)
 .comment       0x00000000       0x31 libbb/lib.a(appletlib.o)
 .comment       0x00000000       0x31 libbb/lib.a(bb_basename.o)
 .comment       0x00000000       0x31 libbb/lib.a(bb_strtonum.o)
 .comment       0x00000000       0x31 libbb/lib.a(concat_path_file.o)
 .comment       0x00000000       0x31 libbb/lib.a(default_error_retval.o)
 .comment       0x00000000       0x31 libbb/lib.a(get_last_path_component.o)
 .comment       0x00000000       0x31 libbb/lib.a(last_char_is.o)
 .comment       0x00000000       0x31 libbb/lib.a(messages.o)
 .comment       0x00000000       0x31 libbb/lib.a(perror_msg.o)
 .comment       0x00000000       0x31 libbb/lib.a(ptr_to_globals.o)
 .comment       0x00000000       0x31 libbb/lib.a(skip_whitespace.o)
 .comment       0x00000000       0x31 libbb/lib.a(verror_msg.o)
 .comment       0x00000000       0x31 libbb/lib.a(wfopen.o)
 .comment       0x00000000       0x31 libbb/lib.a(xfunc_die.o)
 .comment       0x00000000       0x31 libbb/lib.a(xfuncs.o)
 .comment       0x00000000       0x31 libbb/lib.a(xfuncs_printf.o)
 .comment       0x00000000       0x31 libbb/lib.a(xreadlink.o)
 .comment       0x00000000       0x31 libbb/lib.a(copyfd.o)
 .comment       0x00000000       0x31 libbb/lib.a(full_write.o)
 .comment       0x00000000       0x31 libbb/lib.a(read.o)
 .comment       0x00000000       0x31 libbb/lib.a(safe_write.o)
 .comment       0x00000000       0x31 libbb/lib.a(time.o)
 .comment       0x00000000       0x31 loginutils/lib.a(getty.o)
 .comment       0x00000000       0x31 loginutils/lib.a(login.o)
 .comment       0x00000000       0x31 loginutils/lib.a(passwd.o)
 .comment       0x00000000       0x31 loginutils/lib.a(sulogin.o)
 .comment       0x00000000       0x31 loginutils/lib.a(vlock.o)
 .comment       0x00000000       0x31 miscutils/lib.a(flash_eraseall.o)
 .comment       0x00000000       0x31 miscutils/lib.a(mt.o)
 .comment       0x00000000       0x31 miscutils/lib.a(strings.o)
 .comment       0x00000000       0x31 miscutils/lib.a(time.o)
 .comment       0x00000000       0x31 modutils/lib.a(modprobe-small.o)
 .comment       0x00000000       0x31 networking/lib.a(hostname.o)
 .comment       0x00000000       0x31 networking/lib.a(ifconfig.o)
 .comment       0x00000000       0x31 networking/lib.a(inetd.o)
 .comment       0x00000000       0x31 networking/lib.a(interface.o)
 .comment       0x00000000       0x31 networking/lib.a(ntpd.o)
 .comment       0x00000000       0x31 networking/lib.a(ping.o)
 .comment       0x00000000       0x31 networking/lib.a(route.o)
 .comment       0x00000000       0x31 networking/lib.a(wget.o)
 .comment       0x00000000       0x31 networking/udhcp/lib.a(dhcpc.o)
 .comment       0x00000000       0x31 networking/udhcp/lib.a(domain_codec.o)
 .comment       0x00000000       0x31 networking/udhcp/lib.a(packet.o)
 .comment       0x00000000       0x31 networking/udhcp/lib.a(signalpipe.o)
 .comment       0x00000000       0x31 networking/udhcp/lib.a(socket.o)
 .comment       0x00000000       0x31 networking/udhcp/lib.a(arpping.o)
 .comment       0x00000000       0x31 networking/udhcp/lib.a(common.o)
 .comment       0x00000000       0x31 procps/lib.a(kill.o)
 .comment       0x00000000       0x31 procps/lib.a(pidof.o)
 .comment       0x00000000       0x31 procps/lib.a(ps.o)
 .comment       0x00000000       0x31 shell/lib.a(ash.o)
 .comment       0x00000000       0x31 shell/lib.a(ash_ptr_hack.o)
 .comment       0x00000000       0x31 shell/lib.a(math.o)
 .comment       0x00000000       0x31 shell/lib.a(shell_common.o)
 .comment       0x00000000       0x31 sysklogd/lib.a(klogd.o)
 .comment       0x00000000       0x31 sysklogd/lib.a(syslogd_and_logger.o)
 .comment       0x00000000       0x31 util-linux/lib.a(dmesg.o)
 .comment       0x00000000       0x31 util-linux/lib.a(fdformat.o)
 .comment       0x00000000       0x31 util-linux/lib.a(fdisk.o)
 .comment       0x00000000       0x31 util-linux/lib.a(getopt.o)
 .comment       0x00000000       0x31 util-linux/lib.a(ipcs.o)
 .comment       0x00000000       0x31 util-linux/lib.a(losetup.o)
 .comment       0x00000000       0x31 util-linux/lib.a(mdev.o)
 .comment       0x00000000       0x31 util-linux/lib.a(mkfs_ext2.o)
 .comment       0x00000000       0x31 util-linux/lib.a(mkfs_reiser.o)
 .comment       0x00000000       0x31 util-linux/lib.a(mkfs_vfat.o)
 .comment       0x00000000       0x31 util-linux/lib.a(mount.o)
 .comment       0x00000000       0x31 util-linux/lib.a(swaponoff.o)
 .comment       0x00000000       0x31 util-linux/lib.a(umount.o)
 .comment       0x00000000       0x31 archival/lib.a(tar.o)
 .comment       0x00000000       0x31 archival/libarchive/lib.a(data_extract_all.o)
 .comment       0x00000000       0x31 archival/libarchive/lib.a(data_extract_to_stdout.o)
 .comment       0x00000000       0x31 archival/libarchive/lib.a(data_skip.o)
 .comment       0x00000000       0x31 archival/libarchive/lib.a(filter_accept_reject_list.o)
 .comment       0x00000000       0x31 archival/libarchive/lib.a(find_list_entry.o)
 .comment       0x00000000       0x31 archival/libarchive/lib.a(get_header_tar.o)
 .comment       0x00000000       0x31 archival/libarchive/lib.a(header_list.o)
 .comment       0x00000000       0x31 archival/libarchive/lib.a(header_verbose_list.o)
 .comment       0x00000000       0x31 archival/libarchive/lib.a(init_handle.o)
 .comment       0x00000000       0x31 archival/libarchive/lib.a(seek_by_jump.o)
 .comment       0x00000000       0x31 archival/libarchive/lib.a(seek_by_read.o)
 .comment       0x00000000       0x31 archival/libarchive/lib.a(data_align.o)
 .comment       0x00000000       0x31 archival/libarchive/lib.a(filter_accept_all.o)
 .comment       0x00000000       0x31 archival/libarchive/lib.a(header_skip.o)
 .comment       0x00000000       0x31 coreutils/lib.a(basename.o)
 .comment       0x00000000       0x31 coreutils/lib.a(cat.o)
 .comment       0x00000000       0x31 coreutils/lib.a(chgrp.o)
 .comment       0x00000000       0x31 coreutils/lib.a(chmod.o)
 .comment       0x00000000       0x31 coreutils/lib.a(chown.o)
 .comment       0x00000000       0x31 coreutils/lib.a(chroot.o)
 .comment       0x00000000       0x31 coreutils/lib.a(cp.o)
 .comment       0x00000000       0x31 coreutils/lib.a(cut.o)
 .comment       0x00000000       0x31 coreutils/lib.a(date.o)
 .comment       0x00000000       0x31 coreutils/lib.a(dd.o)
 .comment       0x00000000       0x31 coreutils/lib.a(echo.o)
 .comment       0x00000000       0x31 coreutils/lib.a(env.o)
 .comment       0x00000000       0x31 coreutils/lib.a(expr.o)
 .comment       0x00000000       0x31 coreutils/lib.a(false.o)
 .comment       0x00000000       0x31 coreutils/lib.a(fsync.o)
 .comment       0x00000000       0x31 coreutils/lib.a(head.o)
 .comment       0x00000000       0x31 coreutils/lib.a(hostid.o)
 .comment       0x00000000       0x31 coreutils/lib.a(install.o)
 .comment       0x00000000       0x31 coreutils/lib.a(ln.o)
 .comment       0x00000000       0x31 coreutils/lib.a(logname.o)
 .comment       0x00000000       0x31 coreutils/lib.a(ls.o)
 .comment       0x00000000       0x31 coreutils/lib.a(mkdir.o)
 .comment       0x00000000       0x31 coreutils/lib.a(mknod.o)
 .comment       0x00000000       0x31 coreutils/lib.a(mv.o)
 .comment       0x00000000       0x31 coreutils/lib.a(printenv.o)
 .comment       0x00000000       0x31 coreutils/lib.a(printf.o)
 .comment       0x00000000       0x31 coreutils/lib.a(pwd.o)
 .comment       0x00000000       0x31 coreutils/lib.a(rm.o)
 .comment       0x00000000       0x31 coreutils/lib.a(sleep.o)
 .comment       0x00000000       0x31 coreutils/lib.a(sort.o)
 .comment       0x00000000       0x31 coreutils/lib.a(stty.o)
 .comment       0x00000000       0x31 coreutils/lib.a(sync.o)
 .comment       0x00000000       0x31 coreutils/lib.a(test.o)
 .comment       0x00000000       0x31 coreutils/lib.a(test_ptr_hack.o)
 .comment       0x00000000       0x31 coreutils/lib.a(touch.o)
 .comment       0x00000000       0x31 coreutils/lib.a(tr.o)
 .comment       0x00000000       0x31 coreutils/lib.a(true.o)
 .comment       0x00000000       0x31 coreutils/lib.a(tty.o)
 .comment       0x00000000       0x31 coreutils/lib.a(uniq.o)
 .comment       0x00000000       0x31 coreutils/lib.a(usleep.o)
 .comment       0x00000000       0x31 coreutils/lib.a(uudecode.o)
 .comment       0x00000000       0x31 coreutils/lib.a(uuencode.o)
 .comment       0x00000000       0x31 coreutils/lib.a(wc.o)
 .comment       0x00000000       0x31 coreutils/lib.a(yes.o)
 .comment       0x00000000       0x31 coreutils/libcoreutils/lib.a(cp_mv_stat.o)
 .comment       0x00000000       0x31 coreutils/libcoreutils/lib.a(getopt_mk_fifo_nod.o)
 .comment       0x00000000       0x31 debianutils/lib.a(start_stop_daemon.o)
 .comment       0x00000000       0x31 editors/lib.a(diff.o)
 .comment       0x00000000       0x31 editors/lib.a(sed.o)
 .comment       0x00000000       0x31 findutils/lib.a(grep.o)
 .comment       0x00000000       0x31 init/lib.a(halt.o)
 .comment       0x00000000       0x31 init/lib.a(init.o)
 .comment       0x00000000       0x31 libbb/lib.a(ask_confirmation.o)
 .comment       0x00000000       0x31 libbb/lib.a(bb_askpass.o)
 .comment       0x00000000       0x31 libbb/lib.a(bb_do_delay.o)
 .comment       0x00000000       0x31 libbb/lib.a(bb_pwd.o)
 .comment       0x00000000       0x31 libbb/lib.a(bb_qsort.o)
 .comment       0x00000000       0x31 libbb/lib.a(change_identity.o)
 .comment       0x00000000       0x31 libbb/lib.a(compare_string_array.o)
 .comment       0x00000000       0x31 libbb/lib.a(copy_file.o)
 .comment       0x00000000       0x31 libbb/lib.a(correct_password.o)
 .comment       0x00000000       0x31 libbb/lib.a(crc32.o)
 .comment       0x00000000       0x31 libbb/lib.a(create_icmp_socket.o)
 .comment       0x00000000       0x31 libbb/lib.a(device_open.o)
 .comment       0x00000000       0x31 libbb/lib.a(execable.o)
 .comment       0x00000000       0x31 libbb/lib.a(fclose_nonstdin.o)
 .comment       0x00000000       0x31 libbb/lib.a(fflush_stdout_and_exit.o)
 .comment       0x00000000       0x31 libbb/lib.a(find_mount_point.o)
 .comment       0x00000000       0x31 libbb/lib.a(find_pid_by_name.o)
 .comment       0x00000000       0x31 libbb/lib.a(get_line_from_file.o)
 .comment       0x00000000       0x31 libbb/lib.a(get_volsize.o)
 .comment       0x00000000       0x31 libbb/lib.a(getopt32.o)
 .comment       0x00000000       0x31 libbb/lib.a(herror_msg.o)
 .comment       0x00000000       0x31 libbb/lib.a(human_readable.o)
 .comment       0x00000000       0x31 libbb/lib.a(inet_common.o)
 .comment       0x00000000       0x31 libbb/lib.a(info_msg.o)
 .comment       0x00000000       0x31 libbb/lib.a(inode_hash.o)
 .comment       0x00000000       0x31 libbb/lib.a(isdirectory.o)
 .comment       0x00000000       0x31 libbb/lib.a(kernel_version.o)
 .comment       0x00000000       0x31 libbb/lib.a(lineedit.o)
 .comment       0x00000000       0x31 libbb/lib.a(lineedit_ptr_hack.o)
 .comment       0x00000000       0x31 libbb/lib.a(llist.o)
 .comment       0x00000000       0x31 libbb/lib.a(login.o)
 .comment       0x00000000       0x31 libbb/lib.a(loop.o)
 .comment       0x00000000       0x31 libbb/lib.a(make_directory.o)
 .comment       0x00000000       0x31 libbb/lib.a(makedev.o)
 .comment       0x00000000       0x31 libbb/lib.a(match_fstype.o)
 .comment       0x00000000       0x31 libbb/lib.a(mode_string.o)
 .comment       0x00000000       0x31 libbb/lib.a(parse_config.o)
 .comment       0x00000000       0x31 libbb/lib.a(parse_mode.o)
 .comment       0x00000000       0x31 libbb/lib.a(perror_nomsg_and_die.o)
 .comment       0x00000000       0x31 libbb/lib.a(pidfile.o)
 .comment       0x00000000       0x31 libbb/lib.a(printable_string.o)
 .comment       0x00000000       0x31 libbb/lib.a(process_escape_sequence.o)
 .comment       0x00000000       0x31 libbb/lib.a(procps.o)
 .comment       0x00000000       0x31 libbb/lib.a(progress.o)
 .comment       0x00000000       0x31 libbb/lib.a(pw_encrypt.o)
 .comment       0x00000000       0x31 libbb/lib.a(read_key.o)
 .comment       0x00000000       0x31 libbb/lib.a(read_printf.o)
 .comment       0x00000000       0x31 libbb/lib.a(recursive_action.o)
 .comment       0x00000000       0x31 libbb/lib.a(remove_file.o)
 .comment       0x00000000       0x31 libbb/lib.a(run_shell.o)
 .comment       0x00000000       0x31 libbb/lib.a(safe_gethostname.o)
 .comment       0x00000000       0x31 libbb/lib.a(safe_poll.o)
 .comment       0x00000000       0x31 libbb/lib.a(safe_strncpy.o)
 .comment       0x00000000       0x31 libbb/lib.a(setup_environment.o)
 .comment       0x00000000       0x31 libbb/lib.a(signals.o)
 .comment       0x00000000       0x31 libbb/lib.a(simplify_path.o)
 .comment       0x00000000       0x31 libbb/lib.a(speed_table.o)
 .comment       0x00000000       0x31 libbb/lib.a(str_tolower.o)
 .comment       0x00000000       0x31 libbb/lib.a(strrstr.o)
 .comment       0x00000000       0x31 libbb/lib.a(u_signal_names.o)
 .comment       0x00000000       0x31 libbb/lib.a(udp_io.o)
 .comment       0x00000000       0x31 libbb/lib.a(unicode.o)
 .comment       0x00000000       0x31 libbb/lib.a(update_passwd.o)
 .comment       0x00000000       0x31 libbb/lib.a(utmp.o)
 .comment       0x00000000       0x31 libbb/lib.a(uuencode.o)
 .comment       0x00000000       0x31 libbb/lib.a(vfork_daemon_rexec.o)
 .comment       0x00000000       0x31 libbb/lib.a(wfopen_input.o)
 .comment       0x00000000       0x31 libbb/lib.a(write.o)
 .comment       0x00000000       0x31 libbb/lib.a(xatonum.o)
 .comment       0x00000000       0x31 libbb/lib.a(xconnect.o)
 .comment       0x00000000       0x31 libbb/lib.a(xgetcwd.o)
 .comment       0x00000000       0x31 libbb/lib.a(xgethostbyname.o)
 .comment       0x00000000       0x31 libbb/lib.a(xrealloc_vector.o)
 .comment       0x00000000       0x31 libbb/lib.a(xregcomp.o)
 .comment       0x00000000       0x31 libbb/lib.a(concat_subpath_file.o)
 .comment       0x00000000       0x31 libbb/lib.a(hash_md5_sha.o)
 .comment       0x00000000       0x31 libbb/lib.a(perror_nomsg.o)
 .comment       0x00000000       0x31 libbb/lib.a(bb_bswap_64.o)
 .comment       0x00000000       0x31 libpwdgrp/lib.a(uidgid_get.o)
 .comment       0x00000000       0x31 /home/media/data/hudson_build/32bitProduct_SN98600_1.20_P2P_QIWO/ST58600_SRC/toolchain/crosstool-4.5.2/bin/../lib/gcc/arm-unknown-linux-uclibcgnueabi/4.5.2/libgcc.a(_fixunsdfdi.o)
 .comment       0x00000000       0x31 /home/media/data/hudson_build/32bitProduct_SN98600_1.20_P2P_QIWO/ST58600_SRC/toolchain/crosstool-4.5.2/bin/../lib/gcc/arm-unknown-linux-uclibcgnueabi/4.5.2/libgcc.a(bpabi.o)
 .comment       0x00000000       0x31 /home/media/data/hudson_build/32bitProduct_SN98600_1.20_P2P_QIWO/ST58600_SRC/toolchain/crosstool-4.5.2/bin/../lib/gcc/arm-unknown-linux-uclibcgnueabi/4.5.2/libgcc.a(_divdi3.o)
 .comment       0x00000000       0x31 /home/media/data/hudson_build/32bitProduct_SN98600_1.20_P2P_QIWO/ST58600_SRC/toolchain/crosstool-4.5.2/bin/../lib/gcc/arm-unknown-linux-uclibcgnueabi/4.5.2/libgcc.a(_udivdi3.o)
 .comment       0x00000000       0x31 /home/media/data/hudson_build/32bitProduct_SN98600_1.20_P2P_QIWO/ST58600_SRC/toolchain/crosstool-4.5.2/bin/../lib/gcc/arm-unknown-linux-uclibcgnueabi/4.5.2/crtend.o
 .comment       0x00000000       0x2f /home/media/data/hudson_build/32bitProduct_SN98600_1.20_P2P_QIWO/ST58600_SRC/toolchain/crosstool-4.5.2/bin/../arm-unknown-linux-uclibcgnueabi/sysroot/usr/lib/crtn.o

.ARM.attributes
                0x00000000       0x29
 .ARM.attributes
                0x00000000       0x1d /home/media/data/hudson_build/32bitProduct_SN98600_1.20_P2P_QIWO/ST58600_SRC/toolchain/crosstool-4.5.2/bin/../arm-unknown-linux-uclibcgnueabi/sysroot/usr/lib/crt1.o
 .ARM.attributes
                0x0000001d       0x1d /home/media/data/hudson_build/32bitProduct_SN98600_1.20_P2P_QIWO/ST58600_SRC/toolchain/crosstool-4.5.2/bin/../arm-unknown-linux-uclibcgnueabi/sysroot/usr/lib/crti.o
 .ARM.attributes
                0x0000003a       0x2d /home/media/data/hudson_build/32bitProduct_SN98600_1.20_P2P_QIWO/ST58600_SRC/toolchain/crosstool-4.5.2/bin/../lib/gcc/arm-unknown-linux-uclibcgnueabi/4.5.2/crtbegin.o
 .ARM.attributes
                0x00000067       0x2d libbb/lib.a(appletlib.o)
 .ARM.attributes
                0x00000094       0x2d libbb/lib.a(bb_basename.o)
 .ARM.attributes
                0x000000c1       0x2d libbb/lib.a(bb_strtonum.o)
 .ARM.attributes
                0x000000ee       0x2d libbb/lib.a(concat_path_file.o)
 .ARM.attributes
                0x0000011b       0x2d libbb/lib.a(default_error_retval.o)
 .ARM.attributes
                0x00000148       0x2d libbb/lib.a(get_last_path_component.o)
 .ARM.attributes
                0x00000175       0x2d libbb/lib.a(last_char_is.o)
 .ARM.attributes
                0x000001a2       0x2d libbb/lib.a(messages.o)
 .ARM.attributes
                0x000001cf       0x2d libbb/lib.a(perror_msg.o)
 .ARM.attributes
                0x000001fc       0x2d libbb/lib.a(ptr_to_globals.o)
 .ARM.attributes
                0x00000229       0x2d libbb/lib.a(skip_whitespace.o)
 .ARM.attributes
                0x00000256       0x2d libbb/lib.a(verror_msg.o)
 .ARM.attributes
                0x00000283       0x2d libbb/lib.a(wfopen.o)
 .ARM.attributes
                0x000002b0       0x2d libbb/lib.a(xfunc_die.o)
 .ARM.attributes
                0x000002dd       0x2d libbb/lib.a(xfuncs.o)
 .ARM.attributes
                0x0000030a       0x2d libbb/lib.a(xfuncs_printf.o)
 .ARM.attributes
                0x00000337       0x2d libbb/lib.a(xreadlink.o)
 .ARM.attributes
                0x00000364       0x2d libbb/lib.a(copyfd.o)
 .ARM.attributes
                0x00000391       0x2d libbb/lib.a(full_write.o)
 .ARM.attributes
                0x000003be       0x2d libbb/lib.a(read.o)
 .ARM.attributes
                0x000003eb       0x2d libbb/lib.a(safe_write.o)
 .ARM.attributes
                0x00000418       0x2d libbb/lib.a(time.o)
 .ARM.attributes
                0x00000445       0x2d loginutils/lib.a(getty.o)
 .ARM.attributes
                0x00000472       0x2d loginutils/lib.a(login.o)
 .ARM.attributes
                0x0000049f       0x2d loginutils/lib.a(passwd.o)
 .ARM.attributes
                0x000004cc       0x2d loginutils/lib.a(sulogin.o)
 .ARM.attributes
                0x000004f9       0x2d loginutils/lib.a(vlock.o)
 .ARM.attributes
                0x00000526       0x2d miscutils/lib.a(flash_eraseall.o)
 .ARM.attributes
                0x00000553       0x2d miscutils/lib.a(mt.o)
 .ARM.attributes
                0x00000580       0x2d miscutils/lib.a(strings.o)
 .ARM.attributes
                0x000005ad       0x2d miscutils/lib.a(time.o)
 .ARM.attributes
                0x000005da       0x2d modutils/lib.a(modprobe-small.o)
 .ARM.attributes
                0x00000607       0x2d networking/lib.a(hostname.o)
 .ARM.attributes
                0x00000634       0x2d networking/lib.a(ifconfig.o)
 .ARM.attributes
                0x00000661       0x2d networking/lib.a(inetd.o)
 .ARM.attributes
                0x0000068e       0x2d networking/lib.a(interface.o)
 .ARM.attributes
                0x000006bb       0x2d networking/lib.a(ntpd.o)
 .ARM.attributes
                0x000006e8       0x2d networking/lib.a(ping.o)
 .ARM.attributes
                0x00000715       0x2d networking/lib.a(route.o)
 .ARM.attributes
                0x00000742       0x2d networking/lib.a(wget.o)
 .ARM.attributes
                0x0000076f       0x2d networking/udhcp/lib.a(dhcpc.o)
 .ARM.attributes
                0x0000079c       0x2d networking/udhcp/lib.a(domain_codec.o)
 .ARM.attributes
                0x000007c9       0x2d networking/udhcp/lib.a(packet.o)
 .ARM.attributes
                0x000007f6       0x2d networking/udhcp/lib.a(signalpipe.o)
 .ARM.attributes
                0x00000823       0x2d networking/udhcp/lib.a(socket.o)
 .ARM.attributes
                0x00000850       0x2d networking/udhcp/lib.a(arpping.o)
 .ARM.attributes
                0x0000087d       0x2d networking/udhcp/lib.a(common.o)
 .ARM.attributes
                0x000008aa       0x2d procps/lib.a(kill.o)
 .ARM.attributes
                0x000008d7       0x2d procps/lib.a(pidof.o)
 .ARM.attributes
                0x00000904       0x2d procps/lib.a(ps.o)
 .ARM.attributes
                0x00000931       0x2d shell/lib.a(ash.o)
 .ARM.attributes
                0x0000095e       0x2d shell/lib.a(ash_ptr_hack.o)
 .ARM.attributes
                0x0000098b       0x2d shell/lib.a(math.o)
 .ARM.attributes
                0x000009b8       0x2d shell/lib.a(shell_common.o)
 .ARM.attributes
                0x000009e5       0x2d sysklogd/lib.a(klogd.o)
 .ARM.attributes
                0x00000a12       0x2d sysklogd/lib.a(syslogd_and_logger.o)
 .ARM.attributes
                0x00000a3f       0x2d util-linux/lib.a(dmesg.o)
 .ARM.attributes
                0x00000a6c       0x2d util-linux/lib.a(fdformat.o)
 .ARM.attributes
                0x00000a99       0x2d util-linux/lib.a(fdisk.o)
 .ARM.attributes
                0x00000ac6       0x2d util-linux/lib.a(getopt.o)
 .ARM.attributes
                0x00000af3       0x2d util-linux/lib.a(ipcs.o)
 .ARM.attributes
                0x00000b20       0x2d util-linux/lib.a(losetup.o)
 .ARM.attributes
                0x00000b4d       0x2d util-linux/lib.a(mdev.o)
 .ARM.attributes
                0x00000b7a       0x2d util-linux/lib.a(mkfs_ext2.o)
 .ARM.attributes
                0x00000ba7       0x2d util-linux/lib.a(mkfs_reiser.o)
 .ARM.attributes
                0x00000bd4       0x2d util-linux/lib.a(mkfs_vfat.o)
 .ARM.attributes
                0x00000c01       0x2d util-linux/lib.a(mount.o)
 .ARM.attributes
                0x00000c2e       0x2d util-linux/lib.a(swaponoff.o)
 .ARM.attributes
                0x00000c5b       0x2d util-linux/lib.a(umount.o)
 .ARM.attributes
                0x00000c88       0x2d archival/lib.a(tar.o)
 .ARM.attributes
                0x00000cb5       0x2d archival/libarchive/lib.a(data_extract_all.o)
 .ARM.attributes
                0x00000ce2       0x2d archival/libarchive/lib.a(data_extract_to_stdout.o)
 .ARM.attributes
                0x00000d0f       0x2d archival/libarchive/lib.a(data_skip.o)
 .ARM.attributes
                0x00000d3c       0x2d archival/libarchive/lib.a(filter_accept_reject_list.o)
 .ARM.attributes
                0x00000d69       0x2d archival/libarchive/lib.a(find_list_entry.o)
 .ARM.attributes
                0x00000d96       0x2d archival/libarchive/lib.a(get_header_tar.o)
 .ARM.attributes
                0x00000dc3       0x2d archival/libarchive/lib.a(header_list.o)
 .ARM.attributes
                0x00000df0       0x2d archival/libarchive/lib.a(header_verbose_list.o)
 .ARM.attributes
                0x00000e1d       0x2d archival/libarchive/lib.a(init_handle.o)
 .ARM.attributes
                0x00000e4a       0x2d archival/libarchive/lib.a(seek_by_jump.o)
 .ARM.attributes
                0x00000e77       0x2d archival/libarchive/lib.a(seek_by_read.o)
 .ARM.attributes
                0x00000ea4       0x2d archival/libarchive/lib.a(data_align.o)
 .ARM.attributes
                0x00000ed1       0x2d archival/libarchive/lib.a(filter_accept_all.o)
 .ARM.attributes
                0x00000efe       0x2d archival/libarchive/lib.a(header_skip.o)
 .ARM.attributes
                0x00000f2b       0x2d coreutils/lib.a(basename.o)
 .ARM.attributes
                0x00000f58       0x2d coreutils/lib.a(cat.o)
 .ARM.attributes
                0x00000f85       0x2d coreutils/lib.a(chgrp.o)
 .ARM.attributes
                0x00000fb2       0x2d coreutils/lib.a(chmod.o)
 .ARM.attributes
                0x00000fdf       0x2d coreutils/lib.a(chown.o)
 .ARM.attributes
                0x0000100c       0x2d coreutils/lib.a(chroot.o)
 .ARM.attributes
                0x00001039       0x2d coreutils/lib.a(cp.o)
 .ARM.attributes
                0x00001066       0x2d coreutils/lib.a(cut.o)
 .ARM.attributes
                0x00001093       0x2d coreutils/lib.a(date.o)
 .ARM.attributes
                0x000010c0       0x2d coreutils/lib.a(dd.o)
 .ARM.attributes
                0x000010ed       0x2d coreutils/lib.a(echo.o)
 .ARM.attributes
                0x0000111a       0x2d coreutils/lib.a(env.o)
 .ARM.attributes
                0x00001147       0x2d coreutils/lib.a(expr.o)
 .ARM.attributes
                0x00001174       0x2d coreutils/lib.a(false.o)
 .ARM.attributes
                0x000011a1       0x2d coreutils/lib.a(fsync.o)
 .ARM.attributes
                0x000011ce       0x2d coreutils/lib.a(head.o)
 .ARM.attributes
                0x000011fb       0x2d coreutils/lib.a(hostid.o)
 .ARM.attributes
                0x00001228       0x2d coreutils/lib.a(install.o)
 .ARM.attributes
                0x00001255       0x2d coreutils/lib.a(ln.o)
 .ARM.attributes
                0x00001282       0x2d coreutils/lib.a(logname.o)
 .ARM.attributes
                0x000012af       0x2d coreutils/lib.a(ls.o)
 .ARM.attributes
                0x000012dc       0x2d coreutils/lib.a(mkdir.o)
 .ARM.attributes
                0x00001309       0x2d coreutils/lib.a(mknod.o)
 .ARM.attributes
                0x00001336       0x2d coreutils/lib.a(mv.o)
 .ARM.attributes
                0x00001363       0x2d coreutils/lib.a(printenv.o)
 .ARM.attributes
                0x00001390       0x2d coreutils/lib.a(printf.o)
 .ARM.attributes
                0x000013bd       0x2d coreutils/lib.a(pwd.o)
 .ARM.attributes
                0x000013ea       0x2d coreutils/lib.a(rm.o)
 .ARM.attributes
                0x00001417       0x2d coreutils/lib.a(sleep.o)
 .ARM.attributes
                0x00001444       0x2d coreutils/lib.a(sort.o)
 .ARM.attributes
                0x00001471       0x2d coreutils/lib.a(stty.o)
 .ARM.attributes
                0x0000149e       0x2d coreutils/lib.a(sync.o)
 .ARM.attributes
                0x000014cb       0x2d coreutils/lib.a(test.o)
 .ARM.attributes
                0x000014f8       0x2d coreutils/lib.a(test_ptr_hack.o)
 .ARM.attributes
                0x00001525       0x2d coreutils/lib.a(touch.o)
 .ARM.attributes
                0x00001552       0x2d coreutils/lib.a(tr.o)
 .ARM.attributes
                0x0000157f       0x2d coreutils/lib.a(true.o)
 .ARM.attributes
                0x000015ac       0x2d coreutils/lib.a(tty.o)
 .ARM.attributes
                0x000015d9       0x2d coreutils/lib.a(uniq.o)
 .ARM.attributes
                0x00001606       0x2d coreutils/lib.a(usleep.o)
 .ARM.attributes
                0x00001633       0x2d coreutils/lib.a(uudecode.o)
 .ARM.attributes
                0x00001660       0x2d coreutils/lib.a(uuencode.o)
 .ARM.attributes
                0x0000168d       0x2d coreutils/lib.a(wc.o)
 .ARM.attributes
                0x000016ba       0x2d coreutils/lib.a(yes.o)
 .ARM.attributes
                0x000016e7       0x2d coreutils/libcoreutils/lib.a(cp_mv_stat.o)
 .ARM.attributes
                0x00001714       0x2d coreutils/libcoreutils/lib.a(getopt_mk_fifo_nod.o)
 .ARM.attributes
                0x00001741       0x2d debianutils/lib.a(start_stop_daemon.o)
 .ARM.attributes
                0x0000176e       0x2d editors/lib.a(diff.o)
 .ARM.attributes
                0x0000179b       0x2d editors/lib.a(sed.o)
 .ARM.attributes
                0x000017c8       0x2d findutils/lib.a(grep.o)
 .ARM.attributes
                0x000017f5       0x2d init/lib.a(halt.o)
 .ARM.attributes
                0x00001822       0x2d init/lib.a(init.o)
 .ARM.attributes
                0x0000184f       0x2d libbb/lib.a(ask_confirmation.o)
 .ARM.attributes
                0x0000187c       0x2d libbb/lib.a(bb_askpass.o)
 .ARM.attributes
                0x000018a9       0x2d libbb/lib.a(bb_do_delay.o)
 .ARM.attributes
                0x000018d6       0x2d libbb/lib.a(bb_pwd.o)
 .ARM.attributes
                0x00001903       0x2d libbb/lib.a(bb_qsort.o)
 .ARM.attributes
                0x00001930       0x2d libbb/lib.a(change_identity.o)
 .ARM.attributes
                0x0000195d       0x2d libbb/lib.a(compare_string_array.o)
 .ARM.attributes
                0x0000198a       0x2d libbb/lib.a(copy_file.o)
 .ARM.attributes
                0x000019b7       0x2d libbb/lib.a(correct_password.o)
 .ARM.attributes
                0x000019e4       0x2d libbb/lib.a(crc32.o)
 .ARM.attributes
                0x00001a11       0x2d libbb/lib.a(create_icmp_socket.o)
 .ARM.attributes
                0x00001a3e       0x2d libbb/lib.a(device_open.o)
 .ARM.attributes
                0x00001a6b       0x2d libbb/lib.a(execable.o)
 .ARM.attributes
                0x00001a98       0x2d libbb/lib.a(fclose_nonstdin.o)
 .ARM.attributes
                0x00001ac5       0x2d libbb/lib.a(fflush_stdout_and_exit.o)
 .ARM.attributes
                0x00001af2       0x2d libbb/lib.a(find_mount_point.o)
 .ARM.attributes
                0x00001b1f       0x2d libbb/lib.a(find_pid_by_name.o)
 .ARM.attributes
                0x00001b4c       0x2d libbb/lib.a(get_line_from_file.o)
 .ARM.attributes
                0x00001b79       0x2d libbb/lib.a(get_volsize.o)
 .ARM.attributes
                0x00001ba6       0x2d libbb/lib.a(getopt32.o)
 .ARM.attributes
                0x00001bd3       0x2d libbb/lib.a(herror_msg.o)
 .ARM.attributes
                0x00001c00       0x2d libbb/lib.a(human_readable.o)
 .ARM.attributes
                0x00001c2d       0x2d libbb/lib.a(inet_common.o)
 .ARM.attributes
                0x00001c5a       0x2d libbb/lib.a(info_msg.o)
 .ARM.attributes
                0x00001c87       0x2d libbb/lib.a(inode_hash.o)
 .ARM.attributes
                0x00001cb4       0x2d libbb/lib.a(isdirectory.o)
 .ARM.attributes
                0x00001ce1       0x2d libbb/lib.a(kernel_version.o)
 .ARM.attributes
                0x00001d0e       0x2d libbb/lib.a(lineedit.o)
 .ARM.attributes
                0x00001d3b       0x2d libbb/lib.a(lineedit_ptr_hack.o)
 .ARM.attributes
                0x00001d68       0x2d libbb/lib.a(llist.o)
 .ARM.attributes
                0x00001d95       0x2d libbb/lib.a(login.o)
 .ARM.attributes
                0x00001dc2       0x2d libbb/lib.a(loop.o)
 .ARM.attributes
                0x00001def       0x2d libbb/lib.a(make_directory.o)
 .ARM.attributes
                0x00001e1c       0x2d libbb/lib.a(makedev.o)
 .ARM.attributes
                0x00001e49       0x2d libbb/lib.a(match_fstype.o)
 .ARM.attributes
                0x00001e76       0x2d libbb/lib.a(mode_string.o)
 .ARM.attributes
                0x00001ea3       0x2d libbb/lib.a(parse_config.o)
 .ARM.attributes
                0x00001ed0       0x2d libbb/lib.a(parse_mode.o)
 .ARM.attributes
                0x00001efd       0x2d libbb/lib.a(perror_nomsg_and_die.o)
 .ARM.attributes
                0x00001f2a       0x2d libbb/lib.a(pidfile.o)
 .ARM.attributes
                0x00001f57       0x2d libbb/lib.a(printable_string.o)
 .ARM.attributes
                0x00001f84       0x2d libbb/lib.a(process_escape_sequence.o)
 .ARM.attributes
                0x00001fb1       0x2d libbb/lib.a(procps.o)
 .ARM.attributes
                0x00001fde       0x2d libbb/lib.a(progress.o)
 .ARM.attributes
                0x0000200b       0x2d libbb/lib.a(pw_encrypt.o)
 .ARM.attributes
                0x00002038       0x2d libbb/lib.a(read_key.o)
 .ARM.attributes
                0x00002065       0x2d libbb/lib.a(read_printf.o)
 .ARM.attributes
                0x00002092       0x2d libbb/lib.a(recursive_action.o)
 .ARM.attributes
                0x000020bf       0x2d libbb/lib.a(remove_file.o)
 .ARM.attributes
                0x000020ec       0x2d libbb/lib.a(run_shell.o)
 .ARM.attributes
                0x00002119       0x2d libbb/lib.a(safe_gethostname.o)
 .ARM.attributes
                0x00002146       0x2d libbb/lib.a(safe_poll.o)
 .ARM.attributes
                0x00002173       0x2d libbb/lib.a(safe_strncpy.o)
 .ARM.attributes
                0x000021a0       0x2d libbb/lib.a(setup_environment.o)
 .ARM.attributes
                0x000021cd       0x2d libbb/lib.a(signals.o)
 .ARM.attributes
                0x000021fa       0x2d libbb/lib.a(simplify_path.o)
 .ARM.attributes
                0x00002227       0x2d libbb/lib.a(speed_table.o)
 .ARM.attributes
                0x00002254       0x2d libbb/lib.a(str_tolower.o)
 .ARM.attributes
                0x00002281       0x2d libbb/lib.a(strrstr.o)
 .ARM.attributes
                0x000022ae       0x2d libbb/lib.a(u_signal_names.o)
 .ARM.attributes
                0x000022db       0x2d libbb/lib.a(udp_io.o)
 .ARM.attributes
                0x00002308       0x2d libbb/lib.a(unicode.o)
 .ARM.attributes
                0x00002335       0x2d libbb/lib.a(update_passwd.o)
 .ARM.attributes
                0x00002362       0x2d libbb/lib.a(utmp.o)
 .ARM.attributes
                0x0000238f       0x2d libbb/lib.a(uuencode.o)
 .ARM.attributes
                0x000023bc       0x2d libbb/lib.a(vfork_daemon_rexec.o)
 .ARM.attributes
                0x000023e9       0x2d libbb/lib.a(wfopen_input.o)
 .ARM.attributes
                0x00002416       0x2d libbb/lib.a(write.o)
 .ARM.attributes
                0x00002443       0x2d libbb/lib.a(xatonum.o)
 .ARM.attributes
                0x00002470       0x2d libbb/lib.a(xconnect.o)
 .ARM.attributes
                0x0000249d       0x2d libbb/lib.a(xgetcwd.o)
 .ARM.attributes
                0x000024ca       0x2d libbb/lib.a(xgethostbyname.o)
 .ARM.attributes
                0x000024f7       0x2d libbb/lib.a(xrealloc_vector.o)
 .ARM.attributes
                0x00002524       0x2d libbb/lib.a(xregcomp.o)
 .ARM.attributes
                0x00002551       0x2d libbb/lib.a(concat_subpath_file.o)
 .ARM.attributes
                0x0000257e       0x2d libbb/lib.a(hash_md5_sha.o)
 .ARM.attributes
                0x000025ab       0x2d libbb/lib.a(perror_nomsg.o)
 .ARM.attributes
                0x000025d8       0x2d libbb/lib.a(bb_bswap_64.o)
 .ARM.attributes
                0x00002605       0x2d libpwdgrp/lib.a(uidgid_get.o)
 .ARM.attributes
                0x00002632       0x1f /home/media/data/hudson_build/32bitProduct_SN98600_1.20_P2P_QIWO/ST58600_SRC/toolchain/crosstool-4.5.2/bin/../lib/gcc/arm-unknown-linux-uclibcgnueabi/4.5.2/libgcc.a(_udivsi3.o)
 .ARM.attributes
                0x00002651       0x1f /home/media/data/hudson_build/32bitProduct_SN98600_1.20_P2P_QIWO/ST58600_SRC/toolchain/crosstool-4.5.2/bin/../lib/gcc/arm-unknown-linux-uclibcgnueabi/4.5.2/libgcc.a(_divsi3.o)
 .ARM.attributes
                0x00002670       0x1f /home/media/data/hudson_build/32bitProduct_SN98600_1.20_P2P_QIWO/ST58600_SRC/toolchain/crosstool-4.5.2/bin/../lib/gcc/arm-unknown-linux-uclibcgnueabi/4.5.2/libgcc.a(_lshrdi3.o)
 .ARM.attributes
                0x0000268f       0x1f /home/media/data/hudson_build/32bitProduct_SN98600_1.20_P2P_QIWO/ST58600_SRC/toolchain/crosstool-4.5.2/bin/../lib/gcc/arm-unknown-linux-uclibcgnueabi/4.5.2/libgcc.a(_ashrdi3.o)
 .ARM.attributes
                0x000026ae       0x1f /home/media/data/hudson_build/32bitProduct_SN98600_1.20_P2P_QIWO/ST58600_SRC/toolchain/crosstool-4.5.2/bin/../lib/gcc/arm-unknown-linux-uclibcgnueabi/4.5.2/libgcc.a(_ashldi3.o)
 .ARM.attributes
                0x000026cd       0x1f /home/media/data/hudson_build/32bitProduct_SN98600_1.20_P2P_QIWO/ST58600_SRC/toolchain/crosstool-4.5.2/bin/../lib/gcc/arm-unknown-linux-uclibcgnueabi/4.5.2/libgcc.a(_arm_addsubdf3.o)
 .ARM.attributes
                0x000026ec       0x1f /home/media/data/hudson_build/32bitProduct_SN98600_1.20_P2P_QIWO/ST58600_SRC/toolchain/crosstool-4.5.2/bin/../lib/gcc/arm-unknown-linux-uclibcgnueabi/4.5.2/libgcc.a(_arm_muldivdf3.o)
 .ARM.attributes
                0x0000270b       0x1f /home/media/data/hudson_build/32bitProduct_SN98600_1.20_P2P_QIWO/ST58600_SRC/toolchain/crosstool-4.5.2/bin/../lib/gcc/arm-unknown-linux-uclibcgnueabi/4.5.2/libgcc.a(_arm_cmpdf2.o)
 .ARM.attributes
                0x0000272a       0x1f /home/media/data/hudson_build/32bitProduct_SN98600_1.20_P2P_QIWO/ST58600_SRC/toolchain/crosstool-4.5.2/bin/../lib/gcc/arm-unknown-linux-uclibcgnueabi/4.5.2/libgcc.a(_arm_fixdfsi.o)
 .ARM.attributes
                0x00002749       0x1f /home/media/data/hudson_build/32bitProduct_SN98600_1.20_P2P_QIWO/ST58600_SRC/toolchain/crosstool-4.5.2/bin/../lib/gcc/arm-unknown-linux-uclibcgnueabi/4.5.2/libgcc.a(_arm_fixunsdfsi.o)
 .ARM.attributes
                0x00002768       0x1f /home/media/data/hudson_build/32bitProduct_SN98600_1.20_P2P_QIWO/ST58600_SRC/toolchain/crosstool-4.5.2/bin/../lib/gcc/arm-unknown-linux-uclibcgnueabi/4.5.2/libgcc.a(_arm_truncdfsf2.o)
 .ARM.attributes
                0x00002787       0x1f /home/media/data/hudson_build/32bitProduct_SN98600_1.20_P2P_QIWO/ST58600_SRC/toolchain/crosstool-4.5.2/bin/../lib/gcc/arm-unknown-linux-uclibcgnueabi/4.5.2/libgcc.a(_aeabi_ulcmp.o)
 .ARM.attributes
                0x000027a6       0x1f /home/media/data/hudson_build/32bitProduct_SN98600_1.20_P2P_QIWO/ST58600_SRC/toolchain/crosstool-4.5.2/bin/../lib/gcc/arm-unknown-linux-uclibcgnueabi/4.5.2/libgcc.a(_aeabi_ldivmod.o)
 .ARM.attributes
                0x000027c5       0x1f /home/media/data/hudson_build/32bitProduct_SN98600_1.20_P2P_QIWO/ST58600_SRC/toolchain/crosstool-4.5.2/bin/../lib/gcc/arm-unknown-linux-uclibcgnueabi/4.5.2/libgcc.a(_aeabi_uldivmod.o)
 .ARM.attributes
                0x000027e4       0x1f /home/media/data/hudson_build/32bitProduct_SN98600_1.20_P2P_QIWO/ST58600_SRC/toolchain/crosstool-4.5.2/bin/../lib/gcc/arm-unknown-linux-uclibcgnueabi/4.5.2/libgcc.a(_dvmd_lnx.o)
 .ARM.attributes
                0x00002803       0x2d /home/media/data/hudson_build/32bitProduct_SN98600_1.20_P2P_QIWO/ST58600_SRC/toolchain/crosstool-4.5.2/bin/../lib/gcc/arm-unknown-linux-uclibcgnueabi/4.5.2/libgcc.a(_fixunsdfdi.o)
 .ARM.attributes
                0x00002830       0x2d /home/media/data/hudson_build/32bitProduct_SN98600_1.20_P2P_QIWO/ST58600_SRC/toolchain/crosstool-4.5.2/bin/../lib/gcc/arm-unknown-linux-uclibcgnueabi/4.5.2/libgcc.a(bpabi.o)
 .ARM.attributes
                0x0000285d       0x2d /home/media/data/hudson_build/32bitProduct_SN98600_1.20_P2P_QIWO/ST58600_SRC/toolchain/crosstool-4.5.2/bin/../lib/gcc/arm-unknown-linux-uclibcgnueabi/4.5.2/libgcc.a(_divdi3.o)
 .ARM.attributes
                0x0000288a       0x2d /home/media/data/hudson_build/32bitProduct_SN98600_1.20_P2P_QIWO/ST58600_SRC/toolchain/crosstool-4.5.2/bin/../lib/gcc/arm-unknown-linux-uclibcgnueabi/4.5.2/libgcc.a(_udivdi3.o)
 .ARM.attributes
                0x000028b7       0x2d /home/media/data/hudson_build/32bitProduct_SN98600_1.20_P2P_QIWO/ST58600_SRC/toolchain/crosstool-4.5.2/bin/../arm-unknown-linux-uclibcgnueabi/sysroot/usr/lib/uclibc_nonshared.a(atexit.os)
 .ARM.attributes
                0x000028e4       0x2d /home/media/data/hudson_build/32bitProduct_SN98600_1.20_P2P_QIWO/ST58600_SRC/toolchain/crosstool-4.5.2/bin/../lib/gcc/arm-unknown-linux-uclibcgnueabi/4.5.2/crtend.o
 .ARM.attributes
                0x00002911       0x1d /home/media/data/hudson_build/32bitProduct_SN98600_1.20_P2P_QIWO/ST58600_SRC/toolchain/crosstool-4.5.2/bin/../arm-unknown-linux-uclibcgnueabi/sysroot/usr/lib/crtn.o

.debug
 *(SORT(.debug))

.line
 *(SORT(.line))

.debug_srcinfo
 *(SORT(.debug_srcinfo))

.debug_sfnames
 *(SORT(.debug_sfnames))

.debug_aranges  0x00000000      0x260
 *(SORT(.debug_aranges))
 .debug_aranges
                0x00000000       0x20 /home/media/data/hudson_build/32bitProduct_SN98600_1.20_P2P_QIWO/ST58600_SRC/toolchain/crosstool-4.5.2/bin/../lib/gcc/arm-unknown-linux-uclibcgnueabi/4.5.2/libgcc.a(_udivsi3.o)
 .debug_aranges
                0x00000020       0x20 /home/media/data/hudson_build/32bitProduct_SN98600_1.20_P2P_QIWO/ST58600_SRC/toolchain/crosstool-4.5.2/bin/../lib/gcc/arm-unknown-linux-uclibcgnueabi/4.5.2/libgcc.a(_divsi3.o)
 .debug_aranges
                0x00000040       0x20 /home/media/data/hudson_build/32bitProduct_SN98600_1.20_P2P_QIWO/ST58600_SRC/toolchain/crosstool-4.5.2/bin/../lib/gcc/arm-unknown-linux-uclibcgnueabi/4.5.2/libgcc.a(_lshrdi3.o)
 .debug_aranges
                0x00000060       0x20 /home/media/data/hudson_build/32bitProduct_SN98600_1.20_P2P_QIWO/ST58600_SRC/toolchain/crosstool-4.5.2/bin/../lib/gcc/arm-unknown-linux-uclibcgnueabi/4.5.2/libgcc.a(_ashrdi3.o)
 .debug_aranges
                0x00000080       0x20 /home/media/data/hudson_build/32bitProduct_SN98600_1.20_P2P_QIWO/ST58600_SRC/toolchain/crosstool-4.5.2/bin/../lib/gcc/arm-unknown-linux-uclibcgnueabi/4.5.2/libgcc.a(_ashldi3.o)
 .debug_aranges
                0x000000a0       0x20 /home/media/data/hudson_build/32bitProduct_SN98600_1.20_P2P_QIWO/ST58600_SRC/toolchain/crosstool-4.5.2/bin/../lib/gcc/arm-unknown-linux-uclibcgnueabi/4.5.2/libgcc.a(_arm_addsubdf3.o)
 .debug_aranges
                0x000000c0       0x20 /home/media/data/hudson_build/32bitProduct_SN98600_1.20_P2P_QIWO/ST58600_SRC/toolchain/crosstool-4.5.2/bin/../lib/gcc/arm-unknown-linux-uclibcgnueabi/4.5.2/libgcc.a(_arm_muldivdf3.o)
 .debug_aranges
                0x000000e0       0x20 /home/media/data/hudson_build/32bitProduct_SN98600_1.20_P2P_QIWO/ST58600_SRC/toolchain/crosstool-4.5.2/bin/../lib/gcc/arm-unknown-linux-uclibcgnueabi/4.5.2/libgcc.a(_arm_cmpdf2.o)
 .debug_aranges
                0x00000100       0x20 /home/media/data/hudson_build/32bitProduct_SN98600_1.20_P2P_QIWO/ST58600_SRC/toolchain/crosstool-4.5.2/bin/../lib/gcc/arm-unknown-linux-uclibcgnueabi/4.5.2/libgcc.a(_arm_fixdfsi.o)
 .debug_aranges
                0x00000120       0x20 /home/media/data/hudson_build/32bitProduct_SN98600_1.20_P2P_QIWO/ST58600_SRC/toolchain/crosstool-4.5.2/bin/../lib/gcc/arm-unknown-linux-uclibcgnueabi/4.5.2/libgcc.a(_arm_fixunsdfsi.o)
 .debug_aranges
                0x00000140       0x20 /home/media/data/hudson_build/32bitProduct_SN98600_1.20_P2P_QIWO/ST58600_SRC/toolchain/crosstool-4.5.2/bin/../lib/gcc/arm-unknown-linux-uclibcgnueabi/4.5.2/libgcc.a(_arm_truncdfsf2.o)
 .debug_aranges
                0x00000160       0x20 /home/media/data/hudson_build/32bitProduct_SN98600_1.20_P2P_QIWO/ST58600_SRC/toolchain/crosstool-4.5.2/bin/../lib/gcc/arm-unknown-linux-uclibcgnueabi/4.5.2/libgcc.a(_aeabi_ulcmp.o)
 .debug_aranges
                0x00000180       0x20 /home/media/data/hudson_build/32bitProduct_SN98600_1.20_P2P_QIWO/ST58600_SRC/toolchain/crosstool-4.5.2/bin/../lib/gcc/arm-unknown-linux-uclibcgnueabi/4.5.2/libgcc.a(_aeabi_ldivmod.o)
 .debug_aranges
                0x000001a0       0x20 /home/media/data/hudson_build/32bitProduct_SN98600_1.20_P2P_QIWO/ST58600_SRC/toolchain/crosstool-4.5.2/bin/../lib/gcc/arm-unknown-linux-uclibcgnueabi/4.5.2/libgcc.a(_aeabi_uldivmod.o)
 .debug_aranges
                0x000001c0       0x20 /home/media/data/hudson_build/32bitProduct_SN98600_1.20_P2P_QIWO/ST58600_SRC/toolchain/crosstool-4.5.2/bin/../lib/gcc/arm-unknown-linux-uclibcgnueabi/4.5.2/libgcc.a(_dvmd_lnx.o)
 .debug_aranges
                0x000001e0       0x20 /home/media/data/hudson_build/32bitProduct_SN98600_1.20_P2P_QIWO/ST58600_SRC/toolchain/crosstool-4.5.2/bin/../lib/gcc/arm-unknown-linux-uclibcgnueabi/4.5.2/libgcc.a(_fixunsdfdi.o)
 .debug_aranges
                0x00000200       0x20 /home/media/data/hudson_build/32bitProduct_SN98600_1.20_P2P_QIWO/ST58600_SRC/toolchain/crosstool-4.5.2/bin/../lib/gcc/arm-unknown-linux-uclibcgnueabi/4.5.2/libgcc.a(bpabi.o)
 .debug_aranges
                0x00000220       0x20 /home/media/data/hudson_build/32bitProduct_SN98600_1.20_P2P_QIWO/ST58600_SRC/toolchain/crosstool-4.5.2/bin/../lib/gcc/arm-unknown-linux-uclibcgnueabi/4.5.2/libgcc.a(_divdi3.o)
 .debug_aranges
                0x00000240       0x20 /home/media/data/hudson_build/32bitProduct_SN98600_1.20_P2P_QIWO/ST58600_SRC/toolchain/crosstool-4.5.2/bin/../lib/gcc/arm-unknown-linux-uclibcgnueabi/4.5.2/libgcc.a(_udivdi3.o)

.debug_pubnames
                0x00000000       0xa7
 *(SORT(.debug_pubnames))
 .debug_pubnames
                0x00000000       0x23 /home/media/data/hudson_build/32bitProduct_SN98600_1.20_P2P_QIWO/ST58600_SRC/toolchain/crosstool-4.5.2/bin/../lib/gcc/arm-unknown-linux-uclibcgnueabi/4.5.2/libgcc.a(_fixunsdfdi.o)
 .debug_pubnames
                0x00000023       0x45 /home/media/data/hudson_build/32bitProduct_SN98600_1.20_P2P_QIWO/ST58600_SRC/toolchain/crosstool-4.5.2/bin/../lib/gcc/arm-unknown-linux-uclibcgnueabi/4.5.2/libgcc.a(bpabi.o)
 .debug_pubnames
                0x00000068       0x1f /home/media/data/hudson_build/32bitProduct_SN98600_1.20_P2P_QIWO/ST58600_SRC/toolchain/crosstool-4.5.2/bin/../lib/gcc/arm-unknown-linux-uclibcgnueabi/4.5.2/libgcc.a(_divdi3.o)
 .debug_pubnames
                0x00000087       0x20 /home/media/data/hudson_build/32bitProduct_SN98600_1.20_P2P_QIWO/ST58600_SRC/toolchain/crosstool-4.5.2/bin/../lib/gcc/arm-unknown-linux-uclibcgnueabi/4.5.2/libgcc.a(_udivdi3.o)

.debug_info     0x00000000     0x1ea2
 *(SORT(.debug_info) SORT(.gnu.linkonce.wi.*))
 .debug_info    0x00000000      0x126 /home/media/data/hudson_build/32bitProduct_SN98600_1.20_P2P_QIWO/ST58600_SRC/toolchain/crosstool-4.5.2/bin/../lib/gcc/arm-unknown-linux-uclibcgnueabi/4.5.2/libgcc.a(_udivsi3.o)
 .debug_info    0x00000126      0x126 /home/media/data/hudson_build/32bitProduct_SN98600_1.20_P2P_QIWO/ST58600_SRC/toolchain/crosstool-4.5.2/bin/../lib/gcc/arm-unknown-linux-uclibcgnueabi/4.5.2/libgcc.a(_divsi3.o)
 .debug_info    0x0000024c      0x126 /home/media/data/hudson_build/32bitProduct_SN98600_1.20_P2P_QIWO/ST58600_SRC/toolchain/crosstool-4.5.2/bin/../lib/gcc/arm-unknown-linux-uclibcgnueabi/4.5.2/libgcc.a(_lshrdi3.o)
 .debug_info    0x00000372      0x126 /home/media/data/hudson_build/32bitProduct_SN98600_1.20_P2P_QIWO/ST58600_SRC/toolchain/crosstool-4.5.2/bin/../lib/gcc/arm-unknown-linux-uclibcgnueabi/4.5.2/libgcc.a(_ashrdi3.o)
 .debug_info    0x00000498      0x126 /home/media/data/hudson_build/32bitProduct_SN98600_1.20_P2P_QIWO/ST58600_SRC/toolchain/crosstool-4.5.2/bin/../lib/gcc/arm-unknown-linux-uclibcgnueabi/4.5.2/libgcc.a(_ashldi3.o)
 .debug_info    0x000005be      0x125 /home/media/data/hudson_build/32bitProduct_SN98600_1.20_P2P_QIWO/ST58600_SRC/toolchain/crosstool-4.5.2/bin/../lib/gcc/arm-unknown-linux-uclibcgnueabi/4.5.2/libgcc.a(_arm_addsubdf3.o)
 .debug_info    0x000006e3      0x125 /home/media/data/hudson_build/32bitProduct_SN98600_1.20_P2P_QIWO/ST58600_SRC/toolchain/crosstool-4.5.2/bin/../lib/gcc/arm-unknown-linux-uclibcgnueabi/4.5.2/libgcc.a(_arm_muldivdf3.o)
 .debug_info    0x00000808      0x125 /home/media/data/hudson_build/32bitProduct_SN98600_1.20_P2P_QIWO/ST58600_SRC/toolchain/crosstool-4.5.2/bin/../lib/gcc/arm-unknown-linux-uclibcgnueabi/4.5.2/libgcc.a(_arm_cmpdf2.o)
 .debug_info    0x0000092d      0x125 /home/media/data/hudson_build/32bitProduct_SN98600_1.20_P2P_QIWO/ST58600_SRC/toolchain/crosstool-4.5.2/bin/../lib/gcc/arm-unknown-linux-uclibcgnueabi/4.5.2/libgcc.a(_arm_fixdfsi.o)
 .debug_info    0x00000a52      0x125 /home/media/data/hudson_build/32bitProduct_SN98600_1.20_P2P_QIWO/ST58600_SRC/toolchain/crosstool-4.5.2/bin/../lib/gcc/arm-unknown-linux-uclibcgnueabi/4.5.2/libgcc.a(_arm_fixunsdfsi.o)
 .debug_info    0x00000b77      0x125 /home/media/data/hudson_build/32bitProduct_SN98600_1.20_P2P_QIWO/ST58600_SRC/toolchain/crosstool-4.5.2/bin/../lib/gcc/arm-unknown-linux-uclibcgnueabi/4.5.2/libgcc.a(_arm_truncdfsf2.o)
 .debug_info    0x00000c9c      0x120 /home/media/data/hudson_build/32bitProduct_SN98600_1.20_P2P_QIWO/ST58600_SRC/toolchain/crosstool-4.5.2/bin/../lib/gcc/arm-unknown-linux-uclibcgnueabi/4.5.2/libgcc.a(_aeabi_ulcmp.o)
 .debug_info    0x00000dbc      0x120 /home/media/data/hudson_build/32bitProduct_SN98600_1.20_P2P_QIWO/ST58600_SRC/toolchain/crosstool-4.5.2/bin/../lib/gcc/arm-unknown-linux-uclibcgnueabi/4.5.2/libgcc.a(_aeabi_ldivmod.o)
 .debug_info    0x00000edc      0x120 /home/media/data/hudson_build/32bitProduct_SN98600_1.20_P2P_QIWO/ST58600_SRC/toolchain/crosstool-4.5.2/bin/../lib/gcc/arm-unknown-linux-uclibcgnueabi/4.5.2/libgcc.a(_aeabi_uldivmod.o)
 .debug_info    0x00000ffc      0x126 /home/media/data/hudson_build/32bitProduct_SN98600_1.20_P2P_QIWO/ST58600_SRC/toolchain/crosstool-4.5.2/bin/../lib/gcc/arm-unknown-linux-uclibcgnueabi/4.5.2/libgcc.a(_dvmd_lnx.o)
 .debug_info    0x00001122       0xfc /home/media/data/hudson_build/32bitProduct_SN98600_1.20_P2P_QIWO/ST58600_SRC/toolchain/crosstool-4.5.2/bin/../lib/gcc/arm-unknown-linux-uclibcgnueabi/4.5.2/libgcc.a(_fixunsdfdi.o)
 .debug_info    0x0000121e       0xec /home/media/data/hudson_build/32bitProduct_SN98600_1.20_P2P_QIWO/ST58600_SRC/toolchain/crosstool-4.5.2/bin/../lib/gcc/arm-unknown-linux-uclibcgnueabi/4.5.2/libgcc.a(bpabi.o)
 .debug_info    0x0000130a      0x5ed /home/media/data/hudson_build/32bitProduct_SN98600_1.20_P2P_QIWO/ST58600_SRC/toolchain/crosstool-4.5.2/bin/../lib/gcc/arm-unknown-linux-uclibcgnueabi/4.5.2/libgcc.a(_divdi3.o)
 .debug_info    0x000018f7      0x5ab /home/media/data/hudson_build/32bitProduct_SN98600_1.20_P2P_QIWO/ST58600_SRC/toolchain/crosstool-4.5.2/bin/../lib/gcc/arm-unknown-linux-uclibcgnueabi/4.5.2/libgcc.a(_udivdi3.o)

.debug_abbrev   0x00000000      0x4e1
 *(SORT(.debug_abbrev))
 .debug_abbrev  0x00000000       0x14 /home/media/data/hudson_build/32bitProduct_SN98600_1.20_P2P_QIWO/ST58600_SRC/toolchain/crosstool-4.5.2/bin/../lib/gcc/arm-unknown-linux-uclibcgnueabi/4.5.2/libgcc.a(_udivsi3.o)
 .debug_abbrev  0x00000014       0x14 /home/media/data/hudson_build/32bitProduct_SN98600_1.20_P2P_QIWO/ST58600_SRC/toolchain/crosstool-4.5.2/bin/../lib/gcc/arm-unknown-linux-uclibcgnueabi/4.5.2/libgcc.a(_divsi3.o)
 .debug_abbrev  0x00000028       0x14 /home/media/data/hudson_build/32bitProduct_SN98600_1.20_P2P_QIWO/ST58600_SRC/toolchain/crosstool-4.5.2/bin/../lib/gcc/arm-unknown-linux-uclibcgnueabi/4.5.2/libgcc.a(_lshrdi3.o)
 .debug_abbrev  0x0000003c       0x14 /home/media/data/hudson_build/32bitProduct_SN98600_1.20_P2P_QIWO/ST58600_SRC/toolchain/crosstool-4.5.2/bin/../lib/gcc/arm-unknown-linux-uclibcgnueabi/4.5.2/libgcc.a(_ashrdi3.o)
 .debug_abbrev  0x00000050       0x14 /home/media/data/hudson_build/32bitProduct_SN98600_1.20_P2P_QIWO/ST58600_SRC/toolchain/crosstool-4.5.2/bin/../lib/gcc/arm-unknown-linux-uclibcgnueabi/4.5.2/libgcc.a(_ashldi3.o)
 .debug_abbrev  0x00000064       0x14 /home/media/data/hudson_build/32bitProduct_SN98600_1.20_P2P_QIWO/ST58600_SRC/toolchain/crosstool-4.5.2/bin/../lib/gcc/arm-unknown-linux-uclibcgnueabi/4.5.2/libgcc.a(_arm_addsubdf3.o)
 .debug_abbrev  0x00000078       0x14 /home/media/data/hudson_build/32bitProduct_SN98600_1.20_P2P_QIWO/ST58600_SRC/toolchain/crosstool-4.5.2/bin/../lib/gcc/arm-unknown-linux-uclibcgnueabi/4.5.2/libgcc.a(_arm_muldivdf3.o)
 .debug_abbrev  0x0000008c       0x14 /home/media/data/hudson_build/32bitProduct_SN98600_1.20_P2P_QIWO/ST58600_SRC/toolchain/crosstool-4.5.2/bin/../lib/gcc/arm-unknown-linux-uclibcgnueabi/4.5.2/libgcc.a(_arm_cmpdf2.o)
 .debug_abbrev  0x000000a0       0x14 /home/media/data/hudson_build/32bitProduct_SN98600_1.20_P2P_QIWO/ST58600_SRC/toolchain/crosstool-4.5.2/bin/../lib/gcc/arm-unknown-linux-uclibcgnueabi/4.5.2/libgcc.a(_arm_fixdfsi.o)
 .debug_abbrev  0x000000b4       0x14 /home/media/data/hudson_build/32bitProduct_SN98600_1.20_P2P_QIWO/ST58600_SRC/toolchain/crosstool-4.5.2/bin/../lib/gcc/arm-unknown-linux-uclibcgnueabi/4.5.2/libgcc.a(_arm_fixunsdfsi.o)
 .debug_abbrev  0x000000c8       0x14 /home/media/data/hudson_build/32bitProduct_SN98600_1.20_P2P_QIWO/ST58600_SRC/toolchain/crosstool-4.5.2/bin/../lib/gcc/arm-unknown-linux-uclibcgnueabi/4.5.2/libgcc.a(_arm_truncdfsf2.o)
 .debug_abbrev  0x000000dc       0x14 /home/media/data/hudson_build/32bitProduct_SN98600_1.20_P2P_QIWO/ST58600_SRC/toolchain/crosstool-4.5.2/bin/../lib/gcc/arm-unknown-linux-uclibcgnueabi/4.5.2/libgcc.a(_aeabi_ulcmp.o)
 .debug_abbrev  0x000000f0       0x14 /home/media/data/hudson_build/32bitProduct_SN98600_1.20_P2P_QIWO/ST58600_SRC/toolchain/crosstool-4.5.2/bin/../lib/gcc/arm-unknown-linux-uclibcgnueabi/4.5.2/libgcc.a(_aeabi_ldivmod.o)
 .debug_abbrev  0x00000104       0x14 /home/media/data/hudson_build/32bitProduct_SN98600_1.20_P2P_QIWO/ST58600_SRC/toolchain/crosstool-4.5.2/bin/../lib/gcc/arm-unknown-linux-uclibcgnueabi/4.5.2/libgcc.a(_aeabi_uldivmod.o)
 .debug_abbrev  0x00000118       0x14 /home/media/data/hudson_build/32bitProduct_SN98600_1.20_P2P_QIWO/ST58600_SRC/toolchain/crosstool-4.5.2/bin/../lib/gcc/arm-unknown-linux-uclibcgnueabi/4.5.2/libgcc.a(_dvmd_lnx.o)
 .debug_abbrev  0x0000012c       0x82 /home/media/data/hudson_build/32bitProduct_SN98600_1.20_P2P_QIWO/ST58600_SRC/toolchain/crosstool-4.5.2/bin/../lib/gcc/arm-unknown-linux-uclibcgnueabi/4.5.2/libgcc.a(_fixunsdfdi.o)
 .debug_abbrev  0x000001ae       0x6c /home/media/data/hudson_build/32bitProduct_SN98600_1.20_P2P_QIWO/ST58600_SRC/toolchain/crosstool-4.5.2/bin/../lib/gcc/arm-unknown-linux-uclibcgnueabi/4.5.2/libgcc.a(bpabi.o)
 .debug_abbrev  0x0000021a      0x16b /home/media/data/hudson_build/32bitProduct_SN98600_1.20_P2P_QIWO/ST58600_SRC/toolchain/crosstool-4.5.2/bin/../lib/gcc/arm-unknown-linux-uclibcgnueabi/4.5.2/libgcc.a(_divdi3.o)
 .debug_abbrev  0x00000385      0x15c /home/media/data/hudson_build/32bitProduct_SN98600_1.20_P2P_QIWO/ST58600_SRC/toolchain/crosstool-4.5.2/bin/../lib/gcc/arm-unknown-linux-uclibcgnueabi/4.5.2/libgcc.a(_udivdi3.o)

.debug_line     0x00000000     0x1226
 *(SORT(.debug_line))
 .debug_line    0x00000000       0xd1 /home/media/data/hudson_build/32bitProduct_SN98600_1.20_P2P_QIWO/ST58600_SRC/toolchain/crosstool-4.5.2/bin/../lib/gcc/arm-unknown-linux-uclibcgnueabi/4.5.2/libgcc.a(_udivsi3.o)
 .debug_line    0x000000d1       0xdd /home/media/data/hudson_build/32bitProduct_SN98600_1.20_P2P_QIWO/ST58600_SRC/toolchain/crosstool-4.5.2/bin/../lib/gcc/arm-unknown-linux-uclibcgnueabi/4.5.2/libgcc.a(_divsi3.o)
 .debug_line    0x000001ae       0xb3 /home/media/data/hudson_build/32bitProduct_SN98600_1.20_P2P_QIWO/ST58600_SRC/toolchain/crosstool-4.5.2/bin/../lib/gcc/arm-unknown-linux-uclibcgnueabi/4.5.2/libgcc.a(_lshrdi3.o)
 .debug_line    0x00000261       0xb3 /home/media/data/hudson_build/32bitProduct_SN98600_1.20_P2P_QIWO/ST58600_SRC/toolchain/crosstool-4.5.2/bin/../lib/gcc/arm-unknown-linux-uclibcgnueabi/4.5.2/libgcc.a(_ashrdi3.o)
 .debug_line    0x00000314       0xb3 /home/media/data/hudson_build/32bitProduct_SN98600_1.20_P2P_QIWO/ST58600_SRC/toolchain/crosstool-4.5.2/bin/../lib/gcc/arm-unknown-linux-uclibcgnueabi/4.5.2/libgcc.a(_ashldi3.o)
 .debug_line    0x000003c7      0x228 /home/media/data/hudson_build/32bitProduct_SN98600_1.20_P2P_QIWO/ST58600_SRC/toolchain/crosstool-4.5.2/bin/../lib/gcc/arm-unknown-linux-uclibcgnueabi/4.5.2/libgcc.a(_arm_addsubdf3.o)
 .debug_line    0x000005ef      0x249 /home/media/data/hudson_build/32bitProduct_SN98600_1.20_P2P_QIWO/ST58600_SRC/toolchain/crosstool-4.5.2/bin/../lib/gcc/arm-unknown-linux-uclibcgnueabi/4.5.2/libgcc.a(_arm_muldivdf3.o)
 .debug_line    0x00000838      0x140 /home/media/data/hudson_build/32bitProduct_SN98600_1.20_P2P_QIWO/ST58600_SRC/toolchain/crosstool-4.5.2/bin/../lib/gcc/arm-unknown-linux-uclibcgnueabi/4.5.2/libgcc.a(_arm_cmpdf2.o)
 .debug_line    0x00000978       0xc2 /home/media/data/hudson_build/32bitProduct_SN98600_1.20_P2P_QIWO/ST58600_SRC/toolchain/crosstool-4.5.2/bin/../lib/gcc/arm-unknown-linux-uclibcgnueabi/4.5.2/libgcc.a(_arm_fixdfsi.o)
 .debug_line    0x00000a3a       0xc0 /home/media/data/hudson_build/32bitProduct_SN98600_1.20_P2P_QIWO/ST58600_SRC/toolchain/crosstool-4.5.2/bin/../lib/gcc/arm-unknown-linux-uclibcgnueabi/4.5.2/libgcc.a(_arm_fixunsdfsi.o)
 .debug_line    0x00000afa       0xd3 /home/media/data/hudson_build/32bitProduct_SN98600_1.20_P2P_QIWO/ST58600_SRC/toolchain/crosstool-4.5.2/bin/../lib/gcc/arm-unknown-linux-uclibcgnueabi/4.5.2/libgcc.a(_arm_truncdfsf2.o)
 .debug_line    0x00000bcd       0xae /home/media/data/hudson_build/32bitProduct_SN98600_1.20_P2P_QIWO/ST58600_SRC/toolchain/crosstool-4.5.2/bin/../lib/gcc/arm-unknown-linux-uclibcgnueabi/4.5.2/libgcc.a(_aeabi_ulcmp.o)
 .debug_line    0x00000c7b       0xae /home/media/data/hudson_build/32bitProduct_SN98600_1.20_P2P_QIWO/ST58600_SRC/toolchain/crosstool-4.5.2/bin/../lib/gcc/arm-unknown-linux-uclibcgnueabi/4.5.2/libgcc.a(_aeabi_ldivmod.o)
 .debug_line    0x00000d29       0xb0 /home/media/data/hudson_build/32bitProduct_SN98600_1.20_P2P_QIWO/ST58600_SRC/toolchain/crosstool-4.5.2/bin/../lib/gcc/arm-unknown-linux-uclibcgnueabi/4.5.2/libgcc.a(_aeabi_uldivmod.o)
 .debug_line    0x00000dd9       0xb3 /home/media/data/hudson_build/32bitProduct_SN98600_1.20_P2P_QIWO/ST58600_SRC/toolchain/crosstool-4.5.2/bin/../lib/gcc/arm-unknown-linux-uclibcgnueabi/4.5.2/libgcc.a(_dvmd_lnx.o)
 .debug_line    0x00000e8c       0xb4 /home/media/data/hudson_build/32bitProduct_SN98600_1.20_P2P_QIWO/ST58600_SRC/toolchain/crosstool-4.5.2/bin/../lib/gcc/arm-unknown-linux-uclibcgnueabi/4.5.2/libgcc.a(_fixunsdfdi.o)
 .debug_line    0x00000f40       0xaf /home/media/data/hudson_build/32bitProduct_SN98600_1.20_P2P_QIWO/ST58600_SRC/toolchain/crosstool-4.5.2/bin/../lib/gcc/arm-unknown-linux-uclibcgnueabi/4.5.2/libgcc.a(bpabi.o)
 .debug_line    0x00000fef      0x126 /home/media/data/hudson_build/32bitProduct_SN98600_1.20_P2P_QIWO/ST58600_SRC/toolchain/crosstool-4.5.2/bin/../lib/gcc/arm-unknown-linux-uclibcgnueabi/4.5.2/libgcc.a(_divdi3.o)
 .debug_line    0x00001115      0x111 /home/media/data/hudson_build/32bitProduct_SN98600_1.20_P2P_QIWO/ST58600_SRC/toolchain/crosstool-4.5.2/bin/../lib/gcc/arm-unknown-linux-uclibcgnueabi/4.5.2/libgcc.a(_udivdi3.o)

.debug_frame    0x00000000      0x134
 *(SORT(.debug_frame))
 .debug_frame   0x00000000       0x20 /home/media/data/hudson_build/32bitProduct_SN98600_1.20_P2P_QIWO/ST58600_SRC/toolchain/crosstool-4.5.2/bin/../lib/gcc/arm-unknown-linux-uclibcgnueabi/4.5.2/libgcc.a(_udivsi3.o)
 .debug_frame   0x00000020       0x20 /home/media/data/hudson_build/32bitProduct_SN98600_1.20_P2P_QIWO/ST58600_SRC/toolchain/crosstool-4.5.2/bin/../lib/gcc/arm-unknown-linux-uclibcgnueabi/4.5.2/libgcc.a(_divsi3.o)
 .debug_frame   0x00000040       0x2c /home/media/data/hudson_build/32bitProduct_SN98600_1.20_P2P_QIWO/ST58600_SRC/toolchain/crosstool-4.5.2/bin/../lib/gcc/arm-unknown-linux-uclibcgnueabi/4.5.2/libgcc.a(_fixunsdfdi.o)
 .debug_frame   0x0000006c       0x50 /home/media/data/hudson_build/32bitProduct_SN98600_1.20_P2P_QIWO/ST58600_SRC/toolchain/crosstool-4.5.2/bin/../lib/gcc/arm-unknown-linux-uclibcgnueabi/4.5.2/libgcc.a(bpabi.o)
 .debug_frame   0x000000bc       0x3c /home/media/data/hudson_build/32bitProduct_SN98600_1.20_P2P_QIWO/ST58600_SRC/toolchain/crosstool-4.5.2/bin/../lib/gcc/arm-unknown-linux-uclibcgnueabi/4.5.2/libgcc.a(_divdi3.o)
 .debug_frame   0x000000f8       0x3c /home/media/data/hudson_build/32bitProduct_SN98600_1.20_P2P_QIWO/ST58600_SRC/toolchain/crosstool-4.5.2/bin/../lib/gcc/arm-unknown-linux-uclibcgnueabi/4.5.2/libgcc.a(_udivdi3.o)

.debug_str      0x00000000      0x2a6
 *(SORT(.debug_str))
 .debug_str     0x00000000      0x18e /home/media/data/hudson_build/32bitProduct_SN98600_1.20_P2P_QIWO/ST58600_SRC/toolchain/crosstool-4.5.2/bin/../lib/gcc/arm-unknown-linux-uclibcgnueabi/4.5.2/libgcc.a(_fixunsdfdi.o)
                                0x1d4 (size before relaxing)
 .debug_str     0x0000018e       0xb5 /home/media/data/hudson_build/32bitProduct_SN98600_1.20_P2P_QIWO/ST58600_SRC/toolchain/crosstool-4.5.2/bin/../lib/gcc/arm-unknown-linux-uclibcgnueabi/4.5.2/libgcc.a(bpabi.o)
                                 0xe6 (size before relaxing)
 .debug_str     0x00000243       0x59 /home/media/data/hudson_build/32bitProduct_SN98600_1.20_P2P_QIWO/ST58600_SRC/toolchain/crosstool-4.5.2/bin/../lib/gcc/arm-unknown-linux-uclibcgnueabi/4.5.2/libgcc.a(_divdi3.o)
                                0x227 (size before relaxing)
 .debug_str     0x0000029c        0xa /home/media/data/hudson_build/32bitProduct_SN98600_1.20_P2P_QIWO/ST58600_SRC/toolchain/crosstool-4.5.2/bin/../lib/gcc/arm-unknown-linux-uclibcgnueabi/4.5.2/libgcc.a(_udivdi3.o)
                                0x228 (size before relaxing)

.debug_loc      0x00000000     0x1315
 *(SORT(.debug_loc))
 .debug_loc     0x00000000       0x56 /home/media/data/hudson_build/32bitProduct_SN98600_1.20_P2P_QIWO/ST58600_SRC/toolchain/crosstool-4.5.2/bin/../lib/gcc/arm-unknown-linux-uclibcgnueabi/4.5.2/libgcc.a(_fixunsdfdi.o)
 .debug_loc     0x00000056       0xa0 /home/media/data/hudson_build/32bitProduct_SN98600_1.20_P2P_QIWO/ST58600_SRC/toolchain/crosstool-4.5.2/bin/../lib/gcc/arm-unknown-linux-uclibcgnueabi/4.5.2/libgcc.a(bpabi.o)
 .debug_loc     0x000000f6      0x9aa /home/media/data/hudson_build/32bitProduct_SN98600_1.20_P2P_QIWO/ST58600_SRC/toolchain/crosstool-4.5.2/bin/../lib/gcc/arm-unknown-linux-uclibcgnueabi/4.5.2/libgcc.a(_divdi3.o)
 .debug_loc     0x00000aa0      0x875 /home/media/data/hudson_build/32bitProduct_SN98600_1.20_P2P_QIWO/ST58600_SRC/toolchain/crosstool-4.5.2/bin/../lib/gcc/arm-unknown-linux-uclibcgnueabi/4.5.2/libgcc.a(_udivdi3.o)

.debug_macinfo
 *(SORT(.debug_macinfo))

.debug_weaknames
 *(SORT(.debug_weaknames))

.debug_funcnames
 *(SORT(.debug_funcnames))

.debug_typenames
 *(SORT(.debug_typenames))

.debug_varnames
 *(SORT(.debug_varnames))

.debug_pubtypes
                0x00000000       0xe7
 *(SORT(.debug_pubtypes))
 .debug_pubtypes
                0x00000000       0x35 /home/media/data/hudson_build/32bitProduct_SN98600_1.20_P2P_QIWO/ST58600_SRC/toolchain/crosstool-4.5.2/bin/../lib/gcc/arm-unknown-linux-uclibcgnueabi/4.5.2/libgcc.a(_fixunsdfdi.o)
 .debug_pubtypes
                0x00000035       0x59 /home/media/data/hudson_build/32bitProduct_SN98600_1.20_P2P_QIWO/ST58600_SRC/toolchain/crosstool-4.5.2/bin/../lib/gcc/arm-unknown-linux-uclibcgnueabi/4.5.2/libgcc.a(_divdi3.o)
 .debug_pubtypes
                0x0000008e       0x59 /home/media/data/hudson_build/32bitProduct_SN98600_1.20_P2P_QIWO/ST58600_SRC/toolchain/crosstool-4.5.2/bin/../lib/gcc/arm-unknown-linux-uclibcgnueabi/4.5.2/libgcc.a(_udivdi3.o)

.debug_ranges   0x00000000      0x100
 *(SORT(.debug_ranges))
 .debug_ranges  0x00000000       0x78 /home/media/data/hudson_build/32bitProduct_SN98600_1.20_P2P_QIWO/ST58600_SRC/toolchain/crosstool-4.5.2/bin/../lib/gcc/arm-unknown-linux-uclibcgnueabi/4.5.2/libgcc.a(_divdi3.o)
 .debug_ranges  0x00000078       0x88 /home/media/data/hudson_build/32bitProduct_SN98600_1.20_P2P_QIWO/ST58600_SRC/toolchain/crosstool-4.5.2/bin/../lib/gcc/arm-unknown-linux-uclibcgnueabi/4.5.2/libgcc.a(_udivdi3.o)

.gnu.attributes
 *(SORT(.gnu.attributes))

.note.gnu.arm.ident
 *(SORT(.note.gnu.arm.ident))

/DISCARD/
 *(SORT(.note.GNU-stack))
 *(SORT(.gnu_debuglink))
 *(SORT(.gnu.lto_*))
OUTPUT(busybox_unstripped elf32-littlearm)
